0000              1   ;--------------------------------------------------------
0000              2   ; File Created by C51
0000              3   ; Version 1.0.0 #1069 (Apr 23 2015) (MSVC)
0000              4   ; This file was generated Fri Mar 23 14:31:17 2018
0000              5   ;--------------------------------------------------------
                  5   $name EFM8_I2C_Nunchuck_and_motor
                  6   $optc51 --model-small
0000              8            R_DSEG    segment data
0000              9            R_CSEG    segment code
0000             10            R_BSEG    segment bit
0000             11            R_XSEG    segment xdata
0000             12            R_PSEG    segment xdata
0000             13            R_ISEG    segment idata
0000             14            R_OSEG    segment data overlay
0000             15            BIT_BANK  segment data overlay
0000             16            R_HOME    segment code
0000             17            R_GSINIT  segment code
0000             18            R_IXSEG   segment xdata
0000             19            R_CONST   segment code
0000             20            R_XINIT   segment code
0000             21            R_DINIT   segment code
0000             22   
0000             23   ;--------------------------------------------------------
0000             24   ; Public variables in this module
0000             25   ;--------------------------------------------------------
0000             26            public _main
0000             27            public _get_direction
0000             28            public _get_speed
0000             29            public _stop
0000             30            public _turn_SWW
0000             31            public _turn_SEE
0000             32            public _turn_SSW
0000             33            public _turn_SSE
0000             34            public _turn_SE
0000             35            public _turn_SW
0000             36            public _turn_NWW
0000             37            public _turn_NEE
0000             38            public _turn_NNW
0000             39            public _turn_NNE
0000             40            public _turn_NE
0000             41            public _turn_NW
0000             42            public _turn_east
0000             43            public _turn_west
0000             44            public _go_reverse
0000             45            public _go_straight
0000             46            public _Timer2_ISR
0000             47            public _getsn
0000             48            public _waitms
0000             49            public _Timer3us
0000             50            public _nunchuck_getdata
0000             51            public _nunchuck_init
0000             52            public _I2C_stop
0000             53            public _I2C_start
0000             54            public _I2C_read
0000             55            public _I2C_write
0000             56            public _Timer4ms
0000             57            public __c51_external_startup
0000             58            public _nunchuck_init_PARM_1
0000             59            public _get_direction_PARM_2
0000             60            public _get_speed_PARM_2
0000             61            public _getsn_PARM_2
0000             62            public _number4
0000             63            public _number3
0000             64            public _number2
0000             65            public _number1
0000             66            public _pwm_count
0000             67   ;--------------------------------------------------------
0000             68   ; Special Function Registers
0000             69   ;--------------------------------------------------------
0000             70   _ACC            DATA 0xe0
0000             71   _ADC0ASAH       DATA 0xb6
0000             72   _ADC0ASAL       DATA 0xb5
0000             73   _ADC0ASCF       DATA 0xa1
0000             74   _ADC0ASCT       DATA 0xc7
0000             75   _ADC0CF0        DATA 0xbc
0000             76   _ADC0CF1        DATA 0xb9
0000             77   _ADC0CF2        DATA 0xdf
0000             78   _ADC0CN0        DATA 0xe8
0000             79   _ADC0CN1        DATA 0xb2
0000             80   _ADC0CN2        DATA 0xb3
0000             81   _ADC0GTH        DATA 0xc4
0000             82   _ADC0GTL        DATA 0xc3
0000             83   _ADC0H          DATA 0xbe
0000             84   _ADC0L          DATA 0xbd
0000             85   _ADC0LTH        DATA 0xc6
0000             86   _ADC0LTL        DATA 0xc5
0000             87   _ADC0MX         DATA 0xbb
0000             88   _B              DATA 0xf0
0000             89   _CKCON0         DATA 0x8e
0000             90   _CKCON1         DATA 0xa6
0000             91   _CLEN0          DATA 0xc6
0000             92   _CLIE0          DATA 0xc7
0000             93   _CLIF0          DATA 0xe8
0000             94   _CLKSEL         DATA 0xa9
0000             95   _CLOUT0         DATA 0xd1
0000             96   _CLU0CF         DATA 0xb1
0000             97   _CLU0FN         DATA 0xaf
0000             98   _CLU0MX         DATA 0x84
0000             99   _CLU1CF         DATA 0xb3
0000            100   _CLU1FN         DATA 0xb2
0000            101   _CLU1MX         DATA 0x85
0000            102   _CLU2CF         DATA 0xb6
0000            103   _CLU2FN         DATA 0xb5
0000            104   _CLU2MX         DATA 0x91
0000            105   _CLU3CF         DATA 0xbf
0000            106   _CLU3FN         DATA 0xbe
0000            107   _CLU3MX         DATA 0xae
0000            108   _CMP0CN0        DATA 0x9b
0000            109   _CMP0CN1        DATA 0x99
0000            110   _CMP0MD         DATA 0x9d
0000            111   _CMP0MX         DATA 0x9f
0000            112   _CMP1CN0        DATA 0xbf
0000            113   _CMP1CN1        DATA 0xac
0000            114   _CMP1MD         DATA 0xab
0000            115   _CMP1MX         DATA 0xaa
0000            116   _CRC0CN0        DATA 0xce
0000            117   _CRC0CN1        DATA 0x86
0000            118   _CRC0CNT        DATA 0xd3
0000            119   _CRC0DAT        DATA 0xcb
0000            120   _CRC0FLIP       DATA 0xcf
0000            121   _CRC0IN         DATA 0xca
0000            122   _CRC0ST         DATA 0xd2
0000            123   _DAC0CF0        DATA 0x91
0000            124   _DAC0CF1        DATA 0x92
0000            125   _DAC0H          DATA 0x85
0000            126   _DAC0L          DATA 0x84
0000            127   _DAC1CF0        DATA 0x93
0000            128   _DAC1CF1        DATA 0x94
0000            129   _DAC1H          DATA 0x8a
0000            130   _DAC1L          DATA 0x89
0000            131   _DAC2CF0        DATA 0x95
0000            132   _DAC2CF1        DATA 0x96
0000            133   _DAC2H          DATA 0x8c
0000            134   _DAC2L          DATA 0x8b
0000            135   _DAC3CF0        DATA 0x9a
0000            136   _DAC3CF1        DATA 0x9c
0000            137   _DAC3H          DATA 0x8e
0000            138   _DAC3L          DATA 0x8d
0000            139   _DACGCF0        DATA 0x88
0000            140   _DACGCF1        DATA 0x98
0000            141   _DACGCF2        DATA 0xa2
0000            142   _DERIVID        DATA 0xad
0000            143   _DEVICEID       DATA 0xb5
0000            144   _DPH            DATA 0x83
0000            145   _DPL            DATA 0x82
0000            146   _EIE1           DATA 0xe6
0000            147   _EIE2           DATA 0xf3
0000            148   _EIP1           DATA 0xbb
0000            149   _EIP1H          DATA 0xee
0000            150   _EIP2           DATA 0xed
0000            151   _EIP2H          DATA 0xf6
0000            152   _EMI0CN         DATA 0xe7
0000            153   _FLKEY          DATA 0xb7
0000            154   _HFO0CAL        DATA 0xc7
0000            155   _HFO1CAL        DATA 0xd6
0000            156   _HFOCN          DATA 0xef
0000            157   _I2C0ADM        DATA 0xff
0000            158   _I2C0CN0        DATA 0xba
0000            159   _I2C0DIN        DATA 0xbc
0000            160   _I2C0DOUT       DATA 0xbb
0000            161   _I2C0FCN0       DATA 0xad
0000            162   _I2C0FCN1       DATA 0xab
0000            163   _I2C0FCT        DATA 0xf5
0000            164   _I2C0SLAD       DATA 0xbd
0000            165   _I2C0STAT       DATA 0xb9
0000            166   _IE             DATA 0xa8
0000            167   _IP             DATA 0xb8
0000            168   _IPH            DATA 0xf2
0000            169   _IT01CF         DATA 0xe4
0000            170   _LFO0CN         DATA 0xb1
0000            171   _P0             DATA 0x80
0000            172   _P0MASK         DATA 0xfe
0000            173   _P0MAT          DATA 0xfd
0000            174   _P0MDIN         DATA 0xf1
0000            175   _P0MDOUT        DATA 0xa4
0000            176   _P0SKIP         DATA 0xd4
0000            177   _P1             DATA 0x90
0000            178   _P1MASK         DATA 0xee
0000            179   _P1MAT          DATA 0xed
0000            180   _P1MDIN         DATA 0xf2
0000            181   _P1MDOUT        DATA 0xa5
0000            182   _P1SKIP         DATA 0xd5
0000            183   _P2             DATA 0xa0
0000            184   _P2MASK         DATA 0xfc
0000            185   _P2MAT          DATA 0xfb
0000            186   _P2MDIN         DATA 0xf3
0000            187   _P2MDOUT        DATA 0xa6
0000            188   _P2SKIP         DATA 0xcc
0000            189   _P3             DATA 0xb0
0000            190   _P3MDIN         DATA 0xf4
0000            191   _P3MDOUT        DATA 0x9c
0000            192   _PCA0CENT       DATA 0x9e
0000            193   _PCA0CLR        DATA 0x9c
0000            194   _PCA0CN0        DATA 0xd8
0000            195   _PCA0CPH0       DATA 0xfc
0000            196   _PCA0CPH1       DATA 0xea
0000            197   _PCA0CPH2       DATA 0xec
0000            198   _PCA0CPH3       DATA 0xf5
0000            199   _PCA0CPH4       DATA 0x85
0000            200   _PCA0CPH5       DATA 0xde
0000            201   _PCA0CPL0       DATA 0xfb
0000            202   _PCA0CPL1       DATA 0xe9
0000            203   _PCA0CPL2       DATA 0xeb
0000            204   _PCA0CPL3       DATA 0xf4
0000            205   _PCA0CPL4       DATA 0x84
0000            206   _PCA0CPL5       DATA 0xdd
0000            207   _PCA0CPM0       DATA 0xda
0000            208   _PCA0CPM1       DATA 0xdb
0000            209   _PCA0CPM2       DATA 0xdc
0000            210   _PCA0CPM3       DATA 0xae
0000            211   _PCA0CPM4       DATA 0xaf
0000            212   _PCA0CPM5       DATA 0xcc
0000            213   _PCA0H          DATA 0xfa
0000            214   _PCA0L          DATA 0xf9
0000            215   _PCA0MD         DATA 0xd9
0000            216   _PCA0POL        DATA 0x96
0000            217   _PCA0PWM        DATA 0xf7
0000            218   _PCON0          DATA 0x87
0000            219   _PCON1          DATA 0xcd
0000            220   _PFE0CN         DATA 0xc1
0000            221   _PRTDRV         DATA 0xf6
0000            222   _PSCTL          DATA 0x8f
0000            223   _PSTAT0         DATA 0xaa
0000            224   _PSW            DATA 0xd0
0000            225   _REF0CN         DATA 0xd1
0000            226   _REG0CN         DATA 0xc9
0000            227   _REVID          DATA 0xb6
0000            228   _RSTSRC         DATA 0xef
0000            229   _SBCON1         DATA 0x94
0000            230   _SBRLH1         DATA 0x96
0000            231   _SBRLL1         DATA 0x95
0000            232   _SBUF           DATA 0x99
0000            233   _SBUF0          DATA 0x99
0000            234   _SBUF1          DATA 0x92
0000            235   _SCON           DATA 0x98
0000            236   _SCON0          DATA 0x98
0000            237   _SCON1          DATA 0xc8
0000            238   _SFRPAGE        DATA 0xa7
0000            239   _SFRPGCN        DATA 0xbc
0000            240   _SFRSTACK       DATA 0xd7
0000            241   _SMB0ADM        DATA 0xd6
0000            242   _SMB0ADR        DATA 0xd7
0000            243   _SMB0CF         DATA 0xc1
0000            244   _SMB0CN0        DATA 0xc0
0000            245   _SMB0DAT        DATA 0xc2
0000            246   _SMB0FCN0       DATA 0xc3
0000            247   _SMB0FCN1       DATA 0xc4
0000            248   _SMB0FCT        DATA 0xef
0000            249   _SMB0RXLN       DATA 0xc5
0000            250   _SMB0TC         DATA 0xac
0000            251   _SMOD1          DATA 0x93
0000            252   _SP             DATA 0x81
0000            253   _SPI0CFG        DATA 0xa1
0000            254   _SPI0CKR        DATA 0xa2
0000            255   _SPI0CN0        DATA 0xf8
0000            256   _SPI0DAT        DATA 0xa3
0000            257   _SPI0FCN0       DATA 0x9a
0000            258   _SPI0FCN1       DATA 0x9b
0000            259   _SPI0FCT        DATA 0xf7
0000            260   _SPI0PCF        DATA 0xdf
0000            261   _TCON           DATA 0x88
0000            262   _TH0            DATA 0x8c
0000            263   _TH1            DATA 0x8d
0000            264   _TL0            DATA 0x8a
0000            265   _TL1            DATA 0x8b
0000            266   _TMOD           DATA 0x89
0000            267   _TMR2CN0        DATA 0xc8
0000            268   _TMR2CN1        DATA 0xfd
0000            269   _TMR2H          DATA 0xcf
0000            270   _TMR2L          DATA 0xce
0000            271   _TMR2RLH        DATA 0xcb
0000            272   _TMR2RLL        DATA 0xca
0000            273   _TMR3CN0        DATA 0x91
0000            274   _TMR3CN1        DATA 0xfe
0000            275   _TMR3H          DATA 0x95
0000            276   _TMR3L          DATA 0x94
0000            277   _TMR3RLH        DATA 0x93
0000            278   _TMR3RLL        DATA 0x92
0000            279   _TMR4CN0        DATA 0x98
0000            280   _TMR4CN1        DATA 0xff
0000            281   _TMR4H          DATA 0xa5
0000            282   _TMR4L          DATA 0xa4
0000            283   _TMR4RLH        DATA 0xa3
0000            284   _TMR4RLL        DATA 0xa2
0000            285   _TMR5CN0        DATA 0xc0
0000            286   _TMR5CN1        DATA 0xf1
0000            287   _TMR5H          DATA 0xd5
0000            288   _TMR5L          DATA 0xd4
0000            289   _TMR5RLH        DATA 0xd3
0000            290   _TMR5RLL        DATA 0xd2
0000            291   _UART0PCF       DATA 0xd9
0000            292   _UART1FCN0      DATA 0x9d
0000            293   _UART1FCN1      DATA 0xd8
0000            294   _UART1FCT       DATA 0xfa
0000            295   _UART1LIN       DATA 0x9e
0000            296   _UART1PCF       DATA 0xda
0000            297   _VDM0CN         DATA 0xff
0000            298   _WDTCN          DATA 0x97
0000            299   _XBR0           DATA 0xe1
0000            300   _XBR1           DATA 0xe2
0000            301   _XBR2           DATA 0xe3
0000            302   _XOSC0CN        DATA 0x86
0000            303   _DPTR           DATA 0x8382
0000            304   _TMR2RL         DATA 0xcbca
0000            305   _TMR3RL         DATA 0x9392
0000            306   _TMR4RL         DATA 0xa3a2
0000            307   _TMR5RL         DATA 0xd3d2
0000            308   _TMR0           DATA 0x8c8a
0000            309   _TMR1           DATA 0x8d8b
0000            310   _TMR2           DATA 0xcfce
0000            311   _TMR3           DATA 0x9594
0000            312   _TMR4           DATA 0xa5a4
0000            313   _TMR5           DATA 0xd5d4
0000            314   _SBRL1          DATA 0x9695
0000            315   _PCA0           DATA 0xfaf9
0000            316   _PCA0CP0        DATA 0xfcfb
0000            317   _PCA0CP1        DATA 0xeae9
0000            318   _PCA0CP2        DATA 0xeceb
0000            319   _PCA0CP3        DATA 0xf5f4
0000            320   _PCA0CP4        DATA 0x8584
0000            321   _PCA0CP5        DATA 0xdedd
0000            322   _ADC0ASA        DATA 0xb6b5
0000            323   _ADC0GT         DATA 0xc4c3
0000            324   _ADC0           DATA 0xbebd
0000            325   _ADC0LT         DATA 0xc6c5
0000            326   _DAC0           DATA 0x8584
0000            327   _DAC1           DATA 0x8a89
0000            328   _DAC2           DATA 0x8c8b
0000            329   _DAC3           DATA 0x8e8d
0000            330   ;--------------------------------------------------------
0000            331   ; special function bits
0000            332   ;--------------------------------------------------------
0000            333   _ACC_0          BIT 0xe0
0000            334   _ACC_1          BIT 0xe1
0000            335   _ACC_2          BIT 0xe2
0000            336   _ACC_3          BIT 0xe3
0000            337   _ACC_4          BIT 0xe4
0000            338   _ACC_5          BIT 0xe5
0000            339   _ACC_6          BIT 0xe6
0000            340   _ACC_7          BIT 0xe7
0000            341   _TEMPE          BIT 0xe8
0000            342   _ADGN0          BIT 0xe9
0000            343   _ADGN1          BIT 0xea
0000            344   _ADWINT         BIT 0xeb
0000            345   _ADBUSY         BIT 0xec
0000            346   _ADINT          BIT 0xed
0000            347   _IPOEN          BIT 0xee
0000            348   _ADEN           BIT 0xef
0000            349   _B_0            BIT 0xf0
0000            350   _B_1            BIT 0xf1
0000            351   _B_2            BIT 0xf2
0000            352   _B_3            BIT 0xf3
0000            353   _B_4            BIT 0xf4
0000            354   _B_5            BIT 0xf5
0000            355   _B_6            BIT 0xf6
0000            356   _B_7            BIT 0xf7
0000            357   _C0FIF          BIT 0xe8
0000            358   _C0RIF          BIT 0xe9
0000            359   _C1FIF          BIT 0xea
0000            360   _C1RIF          BIT 0xeb
0000            361   _C2FIF          BIT 0xec
0000            362   _C2RIF          BIT 0xed
0000            363   _C3FIF          BIT 0xee
0000            364   _C3RIF          BIT 0xef
0000            365   _D1SRC0         BIT 0x88
0000            366   _D1SRC1         BIT 0x89
0000            367   _D1AMEN         BIT 0x8a
0000            368   _D01REFSL       BIT 0x8b
0000            369   _D3SRC0         BIT 0x8c
0000            370   _D3SRC1         BIT 0x8d
0000            371   _D3AMEN         BIT 0x8e
0000            372   _D23REFSL       BIT 0x8f
0000            373   _D0UDIS         BIT 0x98
0000            374   _D1UDIS         BIT 0x99
0000            375   _D2UDIS         BIT 0x9a
0000            376   _D3UDIS         BIT 0x9b
0000            377   _EX0            BIT 0xa8
0000            378   _ET0            BIT 0xa9
0000            379   _EX1            BIT 0xaa
0000            380   _ET1            BIT 0xab
0000            381   _ES0            BIT 0xac
0000            382   _ET2            BIT 0xad
0000            383   _ESPI0          BIT 0xae
0000            384   _EA             BIT 0xaf
0000            385   _PX0            BIT 0xb8
0000            386   _PT0            BIT 0xb9
0000            387   _PX1            BIT 0xba
0000            388   _PT1            BIT 0xbb
0000            389   _PS0            BIT 0xbc
0000            390   _PT2            BIT 0xbd
0000            391   _PSPI0          BIT 0xbe
0000            392   _P0_0           BIT 0x80
0000            393   _P0_1           BIT 0x81
0000            394   _P0_2           BIT 0x82
0000            395   _P0_3           BIT 0x83
0000            396   _P0_4           BIT 0x84
0000            397   _P0_5           BIT 0x85
0000            398   _P0_6           BIT 0x86
0000            399   _P0_7           BIT 0x87
0000            400   _P1_0           BIT 0x90
0000            401   _P1_1           BIT 0x91
0000            402   _P1_2           BIT 0x92
0000            403   _P1_3           BIT 0x93
0000            404   _P1_4           BIT 0x94
0000            405   _P1_5           BIT 0x95
0000            406   _P1_6           BIT 0x96
0000            407   _P1_7           BIT 0x97
0000            408   _P2_0           BIT 0xa0
0000            409   _P2_1           BIT 0xa1
0000            410   _P2_2           BIT 0xa2
0000            411   _P2_3           BIT 0xa3
0000            412   _P2_4           BIT 0xa4
0000            413   _P2_5           BIT 0xa5
0000            414   _P2_6           BIT 0xa6
0000            415   _P3_0           BIT 0xb0
0000            416   _P3_1           BIT 0xb1
0000            417   _P3_2           BIT 0xb2
0000            418   _P3_3           BIT 0xb3
0000            419   _P3_4           BIT 0xb4
0000            420   _P3_7           BIT 0xb7
0000            421   _CCF0           BIT 0xd8
0000            422   _CCF1           BIT 0xd9
0000            423   _CCF2           BIT 0xda
0000            424   _CCF3           BIT 0xdb
0000            425   _CCF4           BIT 0xdc
0000            426   _CCF5           BIT 0xdd
0000            427   _CR             BIT 0xde
0000            428   _CF             BIT 0xdf
0000            429   _PARITY         BIT 0xd0
0000            430   _F1             BIT 0xd1
0000            431   _OV             BIT 0xd2
0000            432   _RS0            BIT 0xd3
0000            433   _RS1            BIT 0xd4
0000            434   _F0             BIT 0xd5
0000            435   _AC             BIT 0xd6
0000            436   _CY             BIT 0xd7
0000            437   _RI             BIT 0x98
0000            438   _TI             BIT 0x99
0000            439   _RB8            BIT 0x9a
0000            440   _TB8            BIT 0x9b
0000            441   _REN            BIT 0x9c
0000            442   _CE             BIT 0x9d
0000            443   _SMODE          BIT 0x9e
0000            444   _RI1            BIT 0xc8
0000            445   _TI1            BIT 0xc9
0000            446   _RBX1           BIT 0xca
0000            447   _TBX1           BIT 0xcb
0000            448   _REN1           BIT 0xcc
0000            449   _PERR1          BIT 0xcd
0000            450   _OVR1           BIT 0xce
0000            451   _SI             BIT 0xc0
0000            452   _ACK            BIT 0xc1
0000            453   _ARBLOST        BIT 0xc2
0000            454   _ACKRQ          BIT 0xc3
0000            455   _STO            BIT 0xc4
0000            456   _STA            BIT 0xc5
0000            457   _TXMODE         BIT 0xc6
0000            458   _MASTER         BIT 0xc7
0000            459   _SPIEN          BIT 0xf8
0000            460   _TXNF           BIT 0xf9
0000            461   _NSSMD0         BIT 0xfa
0000            462   _NSSMD1         BIT 0xfb
0000            463   _RXOVRN         BIT 0xfc
0000            464   _MODF           BIT 0xfd
0000            465   _WCOL           BIT 0xfe
0000            466   _SPIF           BIT 0xff
0000            467   _IT0            BIT 0x88
0000            468   _IE0            BIT 0x89
0000            469   _IT1            BIT 0x8a
0000            470   _IE1            BIT 0x8b
0000            471   _TR0            BIT 0x8c
0000            472   _TF0            BIT 0x8d
0000            473   _TR1            BIT 0x8e
0000            474   _TF1            BIT 0x8f
0000            475   _T2XCLK0        BIT 0xc8
0000            476   _T2XCLK1        BIT 0xc9
0000            477   _TR2            BIT 0xca
0000            478   _T2SPLIT        BIT 0xcb
0000            479   _TF2CEN         BIT 0xcc
0000            480   _TF2LEN         BIT 0xcd
0000            481   _TF2L           BIT 0xce
0000            482   _TF2H           BIT 0xcf
0000            483   _T4XCLK0        BIT 0x98
0000            484   _T4XCLK1        BIT 0x99
0000            485   _TR4            BIT 0x9a
0000            486   _T4SPLIT        BIT 0x9b
0000            487   _TF4CEN         BIT 0x9c
0000            488   _TF4LEN         BIT 0x9d
0000            489   _TF4L           BIT 0x9e
0000            490   _TF4H           BIT 0x9f
0000            491   _T5XCLK0        BIT 0xc0
0000            492   _T5XCLK1        BIT 0xc1
0000            493   _TR5            BIT 0xc2
0000            494   _T5SPLIT        BIT 0xc3
0000            495   _TF5CEN         BIT 0xc4
0000            496   _TF5LEN         BIT 0xc5
0000            497   _TF5L           BIT 0xc6
0000            498   _TF5H           BIT 0xc7
0000            499   _RIE            BIT 0xd8
0000            500   _RXTO0          BIT 0xd9
0000            501   _RXTO1          BIT 0xda
0000            502   _RFRQ           BIT 0xdb
0000            503   _TIE            BIT 0xdc
0000            504   _TXHOLD         BIT 0xdd
0000            505   _TXNF1          BIT 0xde
0000            506   _TFRQ           BIT 0xdf
0000            507   ;--------------------------------------------------------
0000            508   ; overlayable register banks
0000            509   ;--------------------------------------------------------
0000            510            rbank0 segment data overlay
0000            511   ;--------------------------------------------------------
0000            512   ; internal ram data
0000            513   ;--------------------------------------------------------
0000            514            rseg R_DSEG
0000            515   _pwm_count:
0000            516            ds 1
0001            517   _number1:
0001            518            ds 1
0002            519   _number2:
0002            520            ds 1
0003            521   _number3:
0003            522            ds 1
0004            523   _number4:
0004            524            ds 1
0005            525   _nunchuck_init_buf_1_56:
0005            526            ds 6
000B            527   _nunchuck_init_sloc0_1_0:
000B            528            ds 2
000D            529   _nunchuck_init_sloc1_1_0:
000D            530            ds 2
000F            531   _nunchuck_init_sloc2_1_0:
000F            532            ds 2
0011            533   _getsn_PARM_2:
0011            534            ds 2
0013            535   _getsn_buff_1_67:
0013            536            ds 3
0016            537   _getsn_sloc0_1_0:
0016            538            ds 2
0018            539   _get_speed_PARM_2:
0018            540            ds 2
001A            541   _get_direction_PARM_2:
001A            542            ds 2
001C            543   _main_rbuf_1_135:
001C            544            ds 6
0022            545   _main_joy_y_1_135:
0022            546            ds 2
0024            547   _main_off_x_1_135:
0024            548            ds 2
0026            549   _main_off_y_1_135:
0026            550            ds 2
0028            551   _main_acc_x_1_135:
0028            552            ds 2
002A            553   _main_acc_y_1_135:
002A            554            ds 2
002C            555   _main_acc_z_1_135:
002C            556            ds 2
002E            557   _main_sloc0_1_0:
002E            558            ds 1
002F            559   ;--------------------------------------------------------
002F            560   ; overlayable items in internal ram 
002F            561   ;--------------------------------------------------------
0000            562            rseg    R_OSEG
0000            563            rseg    R_OSEG
0000            564            rseg    R_OSEG
0000            565            rseg    R_OSEG
0000            566            rseg    R_OSEG
0000            567            rseg    R_OSEG
0000            568            rseg    R_OSEG
0000            569            rseg    R_OSEG
0000            570            rseg    R_OSEG
0000            571            rseg    R_OSEG
0000            572            rseg    R_OSEG
0000            573            rseg    R_OSEG
0000            574            rseg    R_OSEG
0000            575            rseg    R_OSEG
0000            576            rseg    R_OSEG
0000            577            rseg    R_OSEG
0000            578            rseg    R_OSEG
0000            579            rseg    R_OSEG
0000            580            rseg    R_OSEG
0000            581            rseg    R_OSEG
0000            582   ;--------------------------------------------------------
0000            583   ; indirectly addressable internal ram data
0000            584   ;--------------------------------------------------------
0000            585            rseg R_ISEG
0000            586   ;--------------------------------------------------------
0000            587   ; absolute internal ram data
0000            588   ;--------------------------------------------------------
0000            589            DSEG
0000            590   ;--------------------------------------------------------
0000            591   ; bit data
0000            592   ;--------------------------------------------------------
0000            593            rseg R_BSEG
0000            594   _nunchuck_init_PARM_1:
0000            595            DBIT    1
0001            596   _Timer2_ISR_sloc0_1_0:
0001            597            DBIT    1
0002            598   _main_but1_1_135:
0002            599            DBIT    1
0003            600   _main_but2_1_135:
0003            601            DBIT    1
0004            602   ;--------------------------------------------------------
0004            603   ; paged external ram data
0004            604   ;--------------------------------------------------------
0000            605            rseg R_PSEG
0000            606   ;--------------------------------------------------------
0000            607   ; external ram data
0000            608   ;--------------------------------------------------------
0000            609            rseg R_XSEG
0000            610   ;--------------------------------------------------------
0000            611   ; absolute external ram data
0000            612   ;--------------------------------------------------------
0000            613            XSEG
0000            614   ;--------------------------------------------------------
0000            615   ; external initialized ram data
0000            616   ;--------------------------------------------------------
0000            617            rseg R_IXSEG
0000            618            rseg R_HOME
0000            619            rseg R_GSINIT
0000            620            rseg R_CSEG
0000            621   ;--------------------------------------------------------
0000            622   ; Reset entry point and interrupt vectors
0000            623   ;--------------------------------------------------------
0000            624            CSEG at 0x0000
0000 020100     625            ljmp    _crt0
002B            626            CSEG at 0x002b
002B 020100     627            ljmp    _Timer2_ISR
002E            628   ;--------------------------------------------------------
002E            629   ; global & static initialisations
002E            630   ;--------------------------------------------------------
0000            631            rseg R_HOME
0000            632            rseg R_GSINIT
0000            633            rseg R_GSINIT
0000            634   ;--------------------------------------------------------
0000            635   ; data variables initialization
0000            636   ;--------------------------------------------------------
0000            637            rseg R_DINIT
0000            638   ;        C:\Users\carso\Documents\1. School\0. Spring 2018\Elec 292\project1\elec291-292-AACHJY\Project2Files\C\Driving Code\EFM8_I2C_Nunchuck_and_motor.c:75: volatile unsigned char pwm_count=0;
0000 75F000     639            mov     _pwm_count,#0x00
0003            640   ;        C:\Users\carso\Documents\1. School\0. Spring 2018\Elec 292\project1\elec291-292-AACHJY\Project2Files\C\Driving Code\EFM8_I2C_Nunchuck_and_motor.c:76: volatile unsigned char number1=0;
0003 755000     641            mov     _number1,#0x00
0006            642   ;        C:\Users\carso\Documents\1. School\0. Spring 2018\Elec 292\project1\elec291-292-AACHJY\Project2Files\C\Driving Code\EFM8_I2C_Nunchuck_and_motor.c:77: volatile unsigned char number2=0; 
0006 751000     643            mov     _number2,#0x00
0009            644   ;        C:\Users\carso\Documents\1. School\0. Spring 2018\Elec 292\project1\elec291-292-AACHJY\Project2Files\C\Driving Code\EFM8_I2C_Nunchuck_and_motor.c:78: volatile unsigned char number3=0;
0009 75D000     645            mov     _number3,#0x00
000C            646   ;        C:\Users\carso\Documents\1. School\0. Spring 2018\Elec 292\project1\elec291-292-AACHJY\Project2Files\C\Driving Code\EFM8_I2C_Nunchuck_and_motor.c:79: volatile unsigned char number4=0; 
000C 759000     647            mov     _number4,#0x00
000F            648            ; The linker places a 'ret' at the end of segment R_DINIT.
000F            649   ;--------------------------------------------------------
000F            650   ; code
000F            651   ;--------------------------------------------------------
0000            652            rseg R_CSEG
0000            653   ;------------------------------------------------------------
0000            654   ;Allocation info for local variables in function '_c51_external_startup'
0000            655   ;------------------------------------------------------------
0000            656   ;------------------------------------------------------------
0000            657   ;        C:\Users\carso\Documents\1. School\0. Spring 2018\Elec 292\project1\elec291-292-AACHJY\Project2Files\C\Driving Code\EFM8_I2C_Nunchuck_and_motor.c:81: char _c51_external_startup (void)
0000            658   ;        -----------------------------------------
0000            659   ;         function _c51_external_startup
0000            660   ;        -----------------------------------------
0000            661   __c51_external_startup:
0000            662            using   0
0000            663   ;        C:\Users\carso\Documents\1. School\0. Spring 2018\Elec 292\project1\elec291-292-AACHJY\Project2Files\C\Driving Code\EFM8_I2C_Nunchuck_and_motor.c:84: SFRPAGE = 0x00;
0000 75A700     664            mov     _SFRPAGE,#0x00
0003            665   ;        C:\Users\carso\Documents\1. School\0. Spring 2018\Elec 292\project1\elec291-292-AACHJY\Project2Files\C\Driving Code\EFM8_I2C_Nunchuck_and_motor.c:85: WDTCN = 0xDE; //First key
0003 7597DE     666            mov     _WDTCN,#0xDE
0006            667   ;        C:\Users\carso\Documents\1. School\0. Spring 2018\Elec 292\project1\elec291-292-AACHJY\Project2Files\C\Driving Code\EFM8_I2C_Nunchuck_and_motor.c:86: WDTCN = 0xAD; //Second key
0006 7597AD     668            mov     _WDTCN,#0xAD
0009            669   ;        C:\Users\carso\Documents\1. School\0. Spring 2018\Elec 292\project1\elec291-292-AACHJY\Project2Files\C\Driving Code\EFM8_I2C_Nunchuck_and_motor.c:88: VDM0CN=0x80;       // enable VDD monitor
0009 75FF80     670            mov     _VDM0CN,#0x80
000C            671   ;        C:\Users\carso\Documents\1. School\0. Spring 2018\Elec 292\project1\elec291-292-AACHJY\Project2Files\C\Driving Code\EFM8_I2C_Nunchuck_and_motor.c:89: RSTSRC=0x02|0x04;  // Enable reset on missing clock detector and VDD
000C 75EF06     672            mov     _RSTSRC,#0x06
000F            673   ;        C:\Users\carso\Documents\1. School\0. Spring 2018\Elec 292\project1\elec291-292-AACHJY\Project2Files\C\Driving Code\EFM8_I2C_Nunchuck_and_motor.c:96: SFRPAGE = 0x10;
000F 75A710     674            mov     _SFRPAGE,#0x10
0012            675   ;        C:\Users\carso\Documents\1. School\0. Spring 2018\Elec 292\project1\elec291-292-AACHJY\Project2Files\C\Driving Code\EFM8_I2C_Nunchuck_and_motor.c:97: PFE0CN  = 0x20; // SYSCLK < 75 MHz.
0012 75C120     676            mov     _PFE0CN,#0x20
0015            677   ;        C:\Users\carso\Documents\1. School\0. Spring 2018\Elec 292\project1\elec291-292-AACHJY\Project2Files\C\Driving Code\EFM8_I2C_Nunchuck_and_motor.c:98: SFRPAGE = 0x00;
0015 75A700     678            mov     _SFRPAGE,#0x00
0018            679   ;        C:\Users\carso\Documents\1. School\0. Spring 2018\Elec 292\project1\elec291-292-AACHJY\Project2Files\C\Driving Code\EFM8_I2C_Nunchuck_and_motor.c:119: CLKSEL = 0x00;
0018 75A900     680            mov     _CLKSEL,#0x00
001B            681   ;        C:\Users\carso\Documents\1. School\0. Spring 2018\Elec 292\project1\elec291-292-AACHJY\Project2Files\C\Driving Code\EFM8_I2C_Nunchuck_and_motor.c:120: CLKSEL = 0x00;
001B 75A900     682            mov     _CLKSEL,#0x00
001E            683   ;        C:\Users\carso\Documents\1. School\0. Spring 2018\Elec 292\project1\elec291-292-AACHJY\Project2Files\C\Driving Code\EFM8_I2C_Nunchuck_and_motor.c:121: while ((CLKSEL & 0x80) == 0);
001E            684   L002001?:
001E E5A9       685            mov     a,_CLKSEL
0020 30E770     686            jnb     acc.7,L002001?
0023            687   ;        C:\Users\carso\Documents\1. School\0. Spring 2018\Elec 292\project1\elec291-292-AACHJY\Project2Files\C\Driving Code\EFM8_I2C_Nunchuck_and_motor.c:122: CLKSEL = 0x03;
0023 75A903     688            mov     _CLKSEL,#0x03
0026            689   ;        C:\Users\carso\Documents\1. School\0. Spring 2018\Elec 292\project1\elec291-292-AACHJY\Project2Files\C\Driving Code\EFM8_I2C_Nunchuck_and_motor.c:123: CLKSEL = 0x03;
0026 75A903     690            mov     _CLKSEL,#0x03
0029            691   ;        C:\Users\carso\Documents\1. School\0. Spring 2018\Elec 292\project1\elec291-292-AACHJY\Project2Files\C\Driving Code\EFM8_I2C_Nunchuck_and_motor.c:124: while ((CLKSEL & 0x80) == 0);
0029            692   L002004?:
0029 E5A9       693            mov     a,_CLKSEL
002B 30E7F0     694            jnb     acc.7,L002004?
002E            695   ;        C:\Users\carso\Documents\1. School\0. Spring 2018\Elec 292\project1\elec291-292-AACHJY\Project2Files\C\Driving Code\EFM8_I2C_Nunchuck_and_motor.c:133: SCON0 = 0x10;
002E 759810     696            mov     _SCON0,#0x10
0031            697   ;        C:\Users\carso\Documents\1. School\0. Spring 2018\Elec 292\project1\elec291-292-AACHJY\Project2Files\C\Driving Code\EFM8_I2C_Nunchuck_and_motor.c:134: TH1 = 0x100-((SYSCLK/BAUDRATE)/(12L*2L));
0031 758DE6     698            mov     _TH1,#0xE6
0034            699   ;        C:\Users\carso\Documents\1. School\0. Spring 2018\Elec 292\project1\elec291-292-AACHJY\Project2Files\C\Driving Code\EFM8_I2C_Nunchuck_and_motor.c:135: TL1 = TH1;      // Init Timer1
0034 858D8B     700            mov     _TL1,_TH1
0037            701   ;        C:\Users\carso\Documents\1. School\0. Spring 2018\Elec 292\project1\elec291-292-AACHJY\Project2Files\C\Driving Code\EFM8_I2C_Nunchuck_and_motor.c:136: TMOD &= ~0xf0;  // TMOD: timer 1 in 8-bit auto-reload
0037 53890F     702            anl     _TMOD,#0x0F
003A            703   ;        C:\Users\carso\Documents\1. School\0. Spring 2018\Elec 292\project1\elec291-292-AACHJY\Project2Files\C\Driving Code\EFM8_I2C_Nunchuck_and_motor.c:137: TMOD |=  0x20;                       
003A 438920     704            orl     _TMOD,#0x20
003D            705   ;        C:\Users\carso\Documents\1. School\0. Spring 2018\Elec 292\project1\elec291-292-AACHJY\Project2Files\C\Driving Code\EFM8_I2C_Nunchuck_and_motor.c:138: TR1 = 1; // START Timer1
003D D28E       706            setb    _TR1
003F            707   ;        C:\Users\carso\Documents\1. School\0. Spring 2018\Elec 292\project1\elec291-292-AACHJY\Project2Files\C\Driving Code\EFM8_I2C_Nunchuck_and_motor.c:139: TI = 1;  // Indicate TX0 ready
003F D299       708            setb    _TI
0041            709   ;        C:\Users\carso\Documents\1. School\0. Spring 2018\Elec 292\project1\elec291-292-AACHJY\Project2Files\C\Driving Code\EFM8_I2C_Nunchuck_and_motor.c:142: P0MDOUT |= 0x10; // Enable UART0 TX as push-pull output
0041 43A410     710            orl     _P0MDOUT,#0x10
0044            711   ;        C:\Users\carso\Documents\1. School\0. Spring 2018\Elec 292\project1\elec291-292-AACHJY\Project2Files\C\Driving Code\EFM8_I2C_Nunchuck_and_motor.c:143: XBR0 = 0b_0000_0101; // Enable SMBus pins and UART pins P0.4(TX) and P0.5(RX)
0044 75E105     712            mov     _XBR0,#0x05
0047            713   ;        C:\Users\carso\Documents\1. School\0. Spring 2018\Elec 292\project1\elec291-292-AACHJY\Project2Files\C\Driving Code\EFM8_I2C_Nunchuck_and_motor.c:144: XBR1 = 0X00;
0047 75E200     714            mov     _XBR1,#0x00
004A            715   ;        C:\Users\carso\Documents\1. School\0. Spring 2018\Elec 292\project1\elec291-292-AACHJY\Project2Files\C\Driving Code\EFM8_I2C_Nunchuck_and_motor.c:145: XBR2 = 0x40; // Enable crossbar and weak pull-ups
004A 75E340     716            mov     _XBR2,#0x40
004D            717   ;        C:\Users\carso\Documents\1. School\0. Spring 2018\Elec 292\project1\elec291-292-AACHJY\Project2Files\C\Driving Code\EFM8_I2C_Nunchuck_and_motor.c:148: CKCON0 |= 0b_0000_0100; // Timer0 clock source = SYSCLK
004D 438E04     718            orl     _CKCON0,#0x04
0050            719   ;        C:\Users\carso\Documents\1. School\0. Spring 2018\Elec 292\project1\elec291-292-AACHJY\Project2Files\C\Driving Code\EFM8_I2C_Nunchuck_and_motor.c:149: TMOD &= 0xf0;  // Mask out timer 1 bits
0050 5389F0     720            anl     _TMOD,#0xF0
0053            721   ;        C:\Users\carso\Documents\1. School\0. Spring 2018\Elec 292\project1\elec291-292-AACHJY\Project2Files\C\Driving Code\EFM8_I2C_Nunchuck_and_motor.c:150: TMOD |= 0x02;  // Timer0 in 8-bit auto-reload mode
0053 438902     722            orl     _TMOD,#0x02
0056            723   ;        C:\Users\carso\Documents\1. School\0. Spring 2018\Elec 292\project1\elec291-292-AACHJY\Project2Files\C\Driving Code\EFM8_I2C_Nunchuck_and_motor.c:152: TL0 = TH0 = 256-(SYSCLK/SMB_FREQUENCY/3);
0056 758C10     724            mov     _TH0,#0x10
0059 758A10     725            mov     _TL0,#0x10
005C            726   ;        C:\Users\carso\Documents\1. School\0. Spring 2018\Elec 292\project1\elec291-292-AACHJY\Project2Files\C\Driving Code\EFM8_I2C_Nunchuck_and_motor.c:153: TR0 = 1; // Enable timer 0
005C D28C       727            setb    _TR0
005E            728   ;        C:\Users\carso\Documents\1. School\0. Spring 2018\Elec 292\project1\elec291-292-AACHJY\Project2Files\C\Driving Code\EFM8_I2C_Nunchuck_and_motor.c:156: TMR2CN0=0x00;   // Stop Timer2; Clear TF2;
005E 75C800     729            mov     _TMR2CN0,#0x00
0061            730   ;        C:\Users\carso\Documents\1. School\0. Spring 2018\Elec 292\project1\elec291-292-AACHJY\Project2Files\C\Driving Code\EFM8_I2C_Nunchuck_and_motor.c:157: CKCON0|=0b_0001_0000; // Timer 2 uses the system clock
0061 438E10     731            orl     _CKCON0,#0x10
0064            732   ;        C:\Users\carso\Documents\1. School\0. Spring 2018\Elec 292\project1\elec291-292-AACHJY\Project2Files\C\Driving Code\EFM8_I2C_Nunchuck_and_motor.c:158: TMR2RL=(0x10000L-(SYSCLK/10000L)); // Initialize reload value ....Timer overflow rate (FREQ) found by SYSCLK/(2^16-TMR2RL)
0064 75CAE0     733            mov     _TMR2RL,#0xE0
0067 75CBE3     734            mov     (_TMR2RL >> 8),#0xE3
006A            735   ;        C:\Users\carso\Documents\1. School\0. Spring 2018\Elec 292\project1\elec291-292-AACHJY\Project2Files\C\Driving Code\EFM8_I2C_Nunchuck_and_motor.c:159: TMR2=0xffff;   // Set to reload immediately
006A 75CEFF     736            mov     _TMR2,#0xFF
006D 75CFFF     737            mov     (_TMR2 >> 8),#0xFF
0070            738   ;        C:\Users\carso\Documents\1. School\0. Spring 2018\Elec 292\project1\elec291-292-AACHJY\Project2Files\C\Driving Code\EFM8_I2C_Nunchuck_and_motor.c:160: ET2=1;         // Enable Timer2 interrupts
0070 D2AD       739            setb    _ET2
0072            740   ;        C:\Users\carso\Documents\1. School\0. Spring 2018\Elec 292\project1\elec291-292-AACHJY\Project2Files\C\Driving Code\EFM8_I2C_Nunchuck_and_motor.c:161: TR2=1;         // Start Timer2 (TMR2CN is bit addressable)
0072 D2CA       741            setb    _TR2
0074            742   ;        C:\Users\carso\Documents\1. School\0. Spring 2018\Elec 292\project1\elec291-292-AACHJY\Project2Files\C\Driving Code\EFM8_I2C_Nunchuck_and_motor.c:163: EA=1; // Enable interrupts
0074 D2AF       743            setb    _EA
0076            744   ;        C:\Users\carso\Documents\1. School\0. Spring 2018\Elec 292\project1\elec291-292-AACHJY\Project2Files\C\Driving Code\EFM8_I2C_Nunchuck_and_motor.c:168: SMB0CF = 0b_0101_1100; //INH | EXTHOLD | SMBTOE | SMBFTE ;
0076 75C15C     745            mov     _SMB0CF,#0x5C
0079            746   ;        C:\Users\carso\Documents\1. School\0. Spring 2018\Elec 292\project1\elec291-292-AACHJY\Project2Files\C\Driving Code\EFM8_I2C_Nunchuck_and_motor.c:169: SMB0CF |= 0b_1000_0000;  // Enable SMBus
0079 43C180     747            orl     _SMB0CF,#0x80
007C            748   ;        C:\Users\carso\Documents\1. School\0. Spring 2018\Elec 292\project1\elec291-292-AACHJY\Project2Files\C\Driving Code\EFM8_I2C_Nunchuck_and_motor.c:171: return 0;
007C 758200     749            mov     dpl,#0x00
007F 22         750            ret
0080            751   ;------------------------------------------------------------
0080            752   ;Allocation info for local variables in function 'Timer4ms'
0080            753   ;------------------------------------------------------------
0080            754   ;ms                        Allocated to registers r2 
0080            755   ;i                         Allocated to registers r4 
0080            756   ;k                         Allocated to registers r3 
0080            757   ;------------------------------------------------------------
0080            758   ;        C:\Users\carso\Documents\1. School\0. Spring 2018\Elec 292\project1\elec291-292-AACHJY\Project2Files\C\Driving Code\EFM8_I2C_Nunchuck_and_motor.c:175: void Timer4ms(unsigned char ms)
0080            759   ;        -----------------------------------------
0080            760   ;         function Timer4ms
0080            761   ;        -----------------------------------------
0080            762   _Timer4ms:
0080 AA82       763            mov     r2,dpl
0082            764   ;        C:\Users\carso\Documents\1. School\0. Spring 2018\Elec 292\project1\elec291-292-AACHJY\Project2Files\C\Driving Code\EFM8_I2C_Nunchuck_and_motor.c:180: k=SFRPAGE;
0082 ABA7       765            mov     r3,_SFRPAGE
0084            766   ;        C:\Users\carso\Documents\1. School\0. Spring 2018\Elec 292\project1\elec291-292-AACHJY\Project2Files\C\Driving Code\EFM8_I2C_Nunchuck_and_motor.c:181: SFRPAGE=0x10;
0084 75A710     767            mov     _SFRPAGE,#0x10
0087            768   ;        C:\Users\carso\Documents\1. School\0. Spring 2018\Elec 292\project1\elec291-292-AACHJY\Project2Files\C\Driving Code\EFM8_I2C_Nunchuck_and_motor.c:183: CKCON1|=0b_0000_0001;
0087 43A601     769            orl     _CKCON1,#0x01
008A            770   ;        C:\Users\carso\Documents\1. School\0. Spring 2018\Elec 292\project1\elec291-292-AACHJY\Project2Files\C\Driving Code\EFM8_I2C_Nunchuck_and_motor.c:185: TMR4RL = 65536-(SYSCLK/1000L); // Set Timer4 to overflow in 1 ms.
008A 75A2C0     771            mov     _TMR4RL,#0xC0
008D 75A3E6     772            mov     (_TMR4RL >> 8),#0xE6
0090            773   ;        C:\Users\carso\Documents\1. School\0. Spring 2018\Elec 292\project1\elec291-292-AACHJY\Project2Files\C\Driving Code\EFM8_I2C_Nunchuck_and_motor.c:186: TMR4 = TMR4RL;                 // Initialize Timer4 for first overflow
0090 85A2A4     774            mov     _TMR4,_TMR4RL
0093 85A3A5     775            mov     (_TMR4 >> 8),(_TMR4RL >> 8)
0096            776   ;        C:\Users\carso\Documents\1. School\0. Spring 2018\Elec 292\project1\elec291-292-AACHJY\Project2Files\C\Driving Code\EFM8_I2C_Nunchuck_and_motor.c:188: TF4H=0; // Clear overflow flag
0096 C29F       777            clr     _TF4H
0098            778   ;        C:\Users\carso\Documents\1. School\0. Spring 2018\Elec 292\project1\elec291-292-AACHJY\Project2Files\C\Driving Code\EFM8_I2C_Nunchuck_and_motor.c:189: TR4=1;  // Start Timer4
0098 D29A       779            setb    _TR4
009A            780   ;        C:\Users\carso\Documents\1. School\0. Spring 2018\Elec 292\project1\elec291-292-AACHJY\Project2Files\C\Driving Code\EFM8_I2C_Nunchuck_and_motor.c:190: for (i = 0; i < ms; i++)       // Count <ms> overflows
009A 7C00       781            mov     r4,#0x00
009C            782   L003004?:
009C C3         783            clr     c
009D EC         784            mov     a,r4
009E 9A         785            subb    a,r2
009F 5001       786            jnc     L003007?
00A1            787   ;        C:\Users\carso\Documents\1. School\0. Spring 2018\Elec 292\project1\elec291-292-AACHJY\Project2Files\C\Driving Code\EFM8_I2C_Nunchuck_and_motor.c:192: while (!TF4H);  // Wait for overflow
00A1            788   L003001?:
00A1            789   ;        C:\Users\carso\Documents\1. School\0. Spring 2018\Elec 292\project1\elec291-292-AACHJY\Project2Files\C\Driving Code\EFM8_I2C_Nunchuck_and_motor.c:193: TF4H=0;         // Clear overflow indicator
00A1 109F30     790            jbc     _TF4H,L003015?
00A4 8001       791            sjmp    L003001?
00A6            792   L003015?:
00A6            793   ;        C:\Users\carso\Documents\1. School\0. Spring 2018\Elec 292\project1\elec291-292-AACHJY\Project2Files\C\Driving Code\EFM8_I2C_Nunchuck_and_motor.c:190: for (i = 0; i < ms; i++)       // Count <ms> overflows
00A6 0C         794            inc     r4
00A7 8001       795            sjmp    L003004?
00A9            796   L003007?:
00A9            797   ;        C:\Users\carso\Documents\1. School\0. Spring 2018\Elec 292\project1\elec291-292-AACHJY\Project2Files\C\Driving Code\EFM8_I2C_Nunchuck_and_motor.c:195: TR4=0; // Stop Timer4
00A9 C29A       798            clr     _TR4
00AB            799   ;        C:\Users\carso\Documents\1. School\0. Spring 2018\Elec 292\project1\elec291-292-AACHJY\Project2Files\C\Driving Code\EFM8_I2C_Nunchuck_and_motor.c:196: SFRPAGE=k;       
00AB 8BA7       800            mov     _SFRPAGE,r3
00AD 22         801            ret
00AE            802   ;------------------------------------------------------------
00AE            803   ;Allocation info for local variables in function 'I2C_write'
00AE            804   ;------------------------------------------------------------
00AE            805   ;output_data               Allocated to registers 
00AE            806   ;------------------------------------------------------------
00AE            807   ;        C:\Users\carso\Documents\1. School\0. Spring 2018\Elec 292\project1\elec291-292-AACHJY\Project2Files\C\Driving Code\EFM8_I2C_Nunchuck_and_motor.c:199: void I2C_write (unsigned char output_data)
00AE            808   ;        -----------------------------------------
00AE            809   ;         function I2C_write
00AE            810   ;        -----------------------------------------
00AE            811   _I2C_write:
00AE 8582C2     812            mov     _SMB0DAT,dpl
00B1            813   ;        C:\Users\carso\Documents\1. School\0. Spring 2018\Elec 292\project1\elec291-292-AACHJY\Project2Files\C\Driving Code\EFM8_I2C_Nunchuck_and_motor.c:202: SI = 0;
00B1 C2C0       814            clr     _SI
00B3            815   ;        C:\Users\carso\Documents\1. School\0. Spring 2018\Elec 292\project1\elec291-292-AACHJY\Project2Files\C\Driving Code\EFM8_I2C_Nunchuck_and_motor.c:203: while (!SI); // Wait until done with send
00B3            816   L004001?:
00B3 30C070     817            jnb     _SI,L004001?
00B6 22         818            ret
00B7            819   ;------------------------------------------------------------
00B7            820   ;Allocation info for local variables in function 'I2C_read'
00B7            821   ;------------------------------------------------------------
00B7            822   ;input_data                Allocated to registers 
00B7            823   ;------------------------------------------------------------
00B7            824   ;        C:\Users\carso\Documents\1. School\0. Spring 2018\Elec 292\project1\elec291-292-AACHJY\Project2Files\C\Driving Code\EFM8_I2C_Nunchuck_and_motor.c:206: unsigned char I2C_read (void)
00B7            825   ;        -----------------------------------------
00B7            826   ;         function I2C_read
00B7            827   ;        -----------------------------------------
00B7            828   _I2C_read:
00B7            829   ;        C:\Users\carso\Documents\1. School\0. Spring 2018\Elec 292\project1\elec291-292-AACHJY\Project2Files\C\Driving Code\EFM8_I2C_Nunchuck_and_motor.c:210: SI = 0;
00B7 C2C0       830            clr     _SI
00B9            831   ;        C:\Users\carso\Documents\1. School\0. Spring 2018\Elec 292\project1\elec291-292-AACHJY\Project2Files\C\Driving Code\EFM8_I2C_Nunchuck_and_motor.c:211: while (!SI); // Wait until we have data to read
00B9            832   L005001?:
00B9 30C0B0     833            jnb     _SI,L005001?
00BC            834   ;        C:\Users\carso\Documents\1. School\0. Spring 2018\Elec 292\project1\elec291-292-AACHJY\Project2Files\C\Driving Code\EFM8_I2C_Nunchuck_and_motor.c:212: input_data = SMB0DAT; // Read the data
00BC 85C282     835            mov     dpl,_SMB0DAT
00BF            836   ;        C:\Users\carso\Documents\1. School\0. Spring 2018\Elec 292\project1\elec291-292-AACHJY\Project2Files\C\Driving Code\EFM8_I2C_Nunchuck_and_motor.c:214: return input_data;
00BF 22         837            ret
00C0            838   ;------------------------------------------------------------
00C0            839   ;Allocation info for local variables in function 'I2C_start'
00C0            840   ;------------------------------------------------------------
00C0            841   ;------------------------------------------------------------
00C0            842   ;        C:\Users\carso\Documents\1. School\0. Spring 2018\Elec 292\project1\elec291-292-AACHJY\Project2Files\C\Driving Code\EFM8_I2C_Nunchuck_and_motor.c:217: void I2C_start (void)
00C0            843   ;        -----------------------------------------
00C0            844   ;         function I2C_start
00C0            845   ;        -----------------------------------------
00C0            846   _I2C_start:
00C0            847   ;        C:\Users\carso\Documents\1. School\0. Spring 2018\Elec 292\project1\elec291-292-AACHJY\Project2Files\C\Driving Code\EFM8_I2C_Nunchuck_and_motor.c:219: ACK = 1;
00C0 D2C1       848            setb    _ACK
00C2            849   ;        C:\Users\carso\Documents\1. School\0. Spring 2018\Elec 292\project1\elec291-292-AACHJY\Project2Files\C\Driving Code\EFM8_I2C_Nunchuck_and_motor.c:220: STA = 1;     // Send I2C start
00C2 D2C5       850            setb    _STA
00C4            851   ;        C:\Users\carso\Documents\1. School\0. Spring 2018\Elec 292\project1\elec291-292-AACHJY\Project2Files\C\Driving Code\EFM8_I2C_Nunchuck_and_motor.c:221: STO = 0;
00C4 C2C4       852            clr     _STO
00C6            853   ;        C:\Users\carso\Documents\1. School\0. Spring 2018\Elec 292\project1\elec291-292-AACHJY\Project2Files\C\Driving Code\EFM8_I2C_Nunchuck_and_motor.c:222: SI = 0;
00C6 C2C0       854            clr     _SI
00C8            855   ;        C:\Users\carso\Documents\1. School\0. Spring 2018\Elec 292\project1\elec291-292-AACHJY\Project2Files\C\Driving Code\EFM8_I2C_Nunchuck_and_motor.c:223: while (!SI); // Wait until start sent
00C8            856   L006001?:
00C8 30C0F0     857            jnb     _SI,L006001?
00CB            858   ;        C:\Users\carso\Documents\1. School\0. Spring 2018\Elec 292\project1\elec291-292-AACHJY\Project2Files\C\Driving Code\EFM8_I2C_Nunchuck_and_motor.c:224: STA = 0;     // Reset I2C start
00CB C2C5       859            clr     _STA
00CD 22         860            ret
00CE            861   ;------------------------------------------------------------
00CE            862   ;Allocation info for local variables in function 'I2C_stop'
00CE            863   ;------------------------------------------------------------
00CE            864   ;------------------------------------------------------------
00CE            865   ;        C:\Users\carso\Documents\1. School\0. Spring 2018\Elec 292\project1\elec291-292-AACHJY\Project2Files\C\Driving Code\EFM8_I2C_Nunchuck_and_motor.c:227: void I2C_stop(void)
00CE            866   ;        -----------------------------------------
00CE            867   ;         function I2C_stop
00CE            868   ;        -----------------------------------------
00CE            869   _I2C_stop:
00CE            870   ;        C:\Users\carso\Documents\1. School\0. Spring 2018\Elec 292\project1\elec291-292-AACHJY\Project2Files\C\Driving Code\EFM8_I2C_Nunchuck_and_motor.c:229: STO = 1;         // Perform I2C stop
00CE D2C4       871            setb    _STO
00D0            872   ;        C:\Users\carso\Documents\1. School\0. Spring 2018\Elec 292\project1\elec291-292-AACHJY\Project2Files\C\Driving Code\EFM8_I2C_Nunchuck_and_motor.c:230: SI = 0;  // Clear SI
00D0 C2C0       873            clr     _SI
00D2 22         874            ret
00D3            875   ;------------------------------------------------------------
00D3            876   ;Allocation info for local variables in function 'nunchuck_init'
00D3            877   ;------------------------------------------------------------
00D3            878   ;i                         Allocated to registers r2 
00D3            879   ;buf                       Allocated with name '_nunchuck_init_buf_1_56'
00D3            880   ;sloc0                     Allocated with name '_nunchuck_init_sloc0_1_0'
00D3            881   ;sloc1                     Allocated with name '_nunchuck_init_sloc1_1_0'
00D3            882   ;sloc2                     Allocated with name '_nunchuck_init_sloc2_1_0'
00D3            883   ;------------------------------------------------------------
00D3            884   ;        C:\Users\carso\Documents\1. School\0. Spring 2018\Elec 292\project1\elec291-292-AACHJY\Project2Files\C\Driving Code\EFM8_I2C_Nunchuck_and_motor.c:234: void nunchuck_init(bit print_extension_type)
00D3            885   ;        -----------------------------------------
00D3            886   ;         function nunchuck_init
00D3            887   ;        -----------------------------------------
00D3            888   _nunchuck_init:
00D3            889   ;        C:\Users\carso\Documents\1. School\0. Spring 2018\Elec 292\project1\elec291-292-AACHJY\Project2Files\C\Driving Code\EFM8_I2C_Nunchuck_and_motor.c:239: I2C_start();
00D3 120100     890            lcall   _I2C_start
00D6            891   ;        C:\Users\carso\Documents\1. School\0. Spring 2018\Elec 292\project1\elec291-292-AACHJY\Project2Files\C\Driving Code\EFM8_I2C_Nunchuck_and_motor.c:240: I2C_write(0xA4);
00D6 7582A4     892            mov     dpl,#0xA4
00D9 120100     893            lcall   _I2C_write
00DC            894   ;        C:\Users\carso\Documents\1. School\0. Spring 2018\Elec 292\project1\elec291-292-AACHJY\Project2Files\C\Driving Code\EFM8_I2C_Nunchuck_and_motor.c:241: I2C_write(0xF0);
00DC 7582F0     895            mov     dpl,#0xF0
00DF 120100     896            lcall   _I2C_write
00E2            897   ;        C:\Users\carso\Documents\1. School\0. Spring 2018\Elec 292\project1\elec291-292-AACHJY\Project2Files\C\Driving Code\EFM8_I2C_Nunchuck_and_motor.c:242: I2C_write(0x55);
00E2 758255     898            mov     dpl,#0x55
00E5 120100     899            lcall   _I2C_write
00E8            900   ;        C:\Users\carso\Documents\1. School\0. Spring 2018\Elec 292\project1\elec291-292-AACHJY\Project2Files\C\Driving Code\EFM8_I2C_Nunchuck_and_motor.c:243: I2C_stop();
00E8 120100     901            lcall   _I2C_stop
00EB            902   ;        C:\Users\carso\Documents\1. School\0. Spring 2018\Elec 292\project1\elec291-292-AACHJY\Project2Files\C\Driving Code\EFM8_I2C_Nunchuck_and_motor.c:244: Timer4ms(1);
00EB 758201     903            mov     dpl,#0x01
00EE 120100     904            lcall   _Timer4ms
00F1            905   ;        C:\Users\carso\Documents\1. School\0. Spring 2018\Elec 292\project1\elec291-292-AACHJY\Project2Files\C\Driving Code\EFM8_I2C_Nunchuck_and_motor.c:246: I2C_start();
00F1 120100     906            lcall   _I2C_start
00F4            907   ;        C:\Users\carso\Documents\1. School\0. Spring 2018\Elec 292\project1\elec291-292-AACHJY\Project2Files\C\Driving Code\EFM8_I2C_Nunchuck_and_motor.c:247: I2C_write(0xA4);
00F4 7582A4     908            mov     dpl,#0xA4
00F7 120100     909            lcall   _I2C_write
00FA            910   ;        C:\Users\carso\Documents\1. School\0. Spring 2018\Elec 292\project1\elec291-292-AACHJY\Project2Files\C\Driving Code\EFM8_I2C_Nunchuck_and_motor.c:248: I2C_write(0xFB);
00FA 7582FB     911            mov     dpl,#0xFB
00FD 120100     912            lcall   _I2C_write
0100            913   ;        C:\Users\carso\Documents\1. School\0. Spring 2018\Elec 292\project1\elec291-292-AACHJY\Project2Files\C\Driving Code\EFM8_I2C_Nunchuck_and_motor.c:249: I2C_write(0x00);
0100 758200     914            mov     dpl,#0x00
0103 120100     915            lcall   _I2C_write
0106            916   ;        C:\Users\carso\Documents\1. School\0. Spring 2018\Elec 292\project1\elec291-292-AACHJY\Project2Files\C\Driving Code\EFM8_I2C_Nunchuck_and_motor.c:250: I2C_stop();
0106 120100     917            lcall   _I2C_stop
0109            918   ;        C:\Users\carso\Documents\1. School\0. Spring 2018\Elec 292\project1\elec291-292-AACHJY\Project2Files\C\Driving Code\EFM8_I2C_Nunchuck_and_motor.c:251: Timer4ms(1);
0109 758201     919            mov     dpl,#0x01
010C 120100     920            lcall   _Timer4ms
010F            921   ;        C:\Users\carso\Documents\1. School\0. Spring 2018\Elec 292\project1\elec291-292-AACHJY\Project2Files\C\Driving Code\EFM8_I2C_Nunchuck_and_motor.c:255: I2C_start();
010F 120100     922            lcall   _I2C_start
0112            923   ;        C:\Users\carso\Documents\1. School\0. Spring 2018\Elec 292\project1\elec291-292-AACHJY\Project2Files\C\Driving Code\EFM8_I2C_Nunchuck_and_motor.c:256: I2C_write(0xA4);
0112 7582A4     924            mov     dpl,#0xA4
0115 120100     925            lcall   _I2C_write
0118            926   ;        C:\Users\carso\Documents\1. School\0. Spring 2018\Elec 292\project1\elec291-292-AACHJY\Project2Files\C\Driving Code\EFM8_I2C_Nunchuck_and_motor.c:257: I2C_write(0xFA); // extension type register
0118 7582FA     927            mov     dpl,#0xFA
011B 120100     928            lcall   _I2C_write
011E            929   ;        C:\Users\carso\Documents\1. School\0. Spring 2018\Elec 292\project1\elec291-292-AACHJY\Project2Files\C\Driving Code\EFM8_I2C_Nunchuck_and_motor.c:258: I2C_stop();
011E 120100     930            lcall   _I2C_stop
0121            931   ;        C:\Users\carso\Documents\1. School\0. Spring 2018\Elec 292\project1\elec291-292-AACHJY\Project2Files\C\Driving Code\EFM8_I2C_Nunchuck_and_motor.c:259: Timer4ms(3); // 3 ms required to complete acquisition
0121 758203     932            mov     dpl,#0x03
0124 120100     933            lcall   _Timer4ms
0127            934   ;        C:\Users\carso\Documents\1. School\0. Spring 2018\Elec 292\project1\elec291-292-AACHJY\Project2Files\C\Driving Code\EFM8_I2C_Nunchuck_and_motor.c:261: I2C_start();
0127 120100     935            lcall   _I2C_start
012A            936   ;        C:\Users\carso\Documents\1. School\0. Spring 2018\Elec 292\project1\elec291-292-AACHJY\Project2Files\C\Driving Code\EFM8_I2C_Nunchuck_and_motor.c:262: I2C_write(0xA5);
012A 7582A5     937            mov     dpl,#0xA5
012D 120100     938            lcall   _I2C_write
0130            939   ;        C:\Users\carso\Documents\1. School\0. Spring 2018\Elec 292\project1\elec291-292-AACHJY\Project2Files\C\Driving Code\EFM8_I2C_Nunchuck_and_motor.c:265: for(i=0; i<6; i++)
0130 7A00       940            mov     r2,#0x00
0132            941   L008003?:
0132 BA0670     942            cjne    r2,#0x06,L008013?
0135            943   L008013?:
0135 5001       944            jnc     L008006?
0137            945   ;        C:\Users\carso\Documents\1. School\0. Spring 2018\Elec 292\project1\elec291-292-AACHJY\Project2Files\C\Driving Code\EFM8_I2C_Nunchuck_and_motor.c:267: buf[i]=I2C_read();
0137 EA         946            mov     a,r2
0138 2400       947            add     a,#_nunchuck_init_buf_1_56
013A F8         948            mov     r0,a
013B C002       949            push    ar2
013D C000       950            push    ar0
013F 120100     951            lcall   _I2C_read
0142 E582       952            mov     a,dpl
0144 D000       953            pop     ar0
0146 D002       954            pop     ar2
0148 F6         955            mov     @r0,a
0149            956   ;        C:\Users\carso\Documents\1. School\0. Spring 2018\Elec 292\project1\elec291-292-AACHJY\Project2Files\C\Driving Code\EFM8_I2C_Nunchuck_and_motor.c:265: for(i=0; i<6; i++)
0149 0A         957            inc     r2
014A 8001       958            sjmp    L008003?
014C            959   L008006?:
014C            960   ;        C:\Users\carso\Documents\1. School\0. Spring 2018\Elec 292\project1\elec291-292-AACHJY\Project2Files\C\Driving Code\EFM8_I2C_Nunchuck_and_motor.c:269: ACK=0;
014C C2C1       961            clr     _ACK
014E            962   ;        C:\Users\carso\Documents\1. School\0. Spring 2018\Elec 292\project1\elec291-292-AACHJY\Project2Files\C\Driving Code\EFM8_I2C_Nunchuck_and_motor.c:270: I2C_stop();
014E 120100     963            lcall   _I2C_stop
0151            964   ;        C:\Users\carso\Documents\1. School\0. Spring 2018\Elec 292\project1\elec291-292-AACHJY\Project2Files\C\Driving Code\EFM8_I2C_Nunchuck_and_motor.c:271: Timer4ms(3);
0151 758203     965            mov     dpl,#0x03
0154 120100     966            lcall   _Timer4ms
0157            967   ;        C:\Users\carso\Documents\1. School\0. Spring 2018\Elec 292\project1\elec291-292-AACHJY\Project2Files\C\Driving Code\EFM8_I2C_Nunchuck_and_motor.c:273: if(print_extension_type)
0157 3070F0     968            jnb     _nunchuck_init_PARM_1,L008002?
015A            969   ;        C:\Users\carso\Documents\1. School\0. Spring 2018\Elec 292\project1\elec291-292-AACHJY\Project2Files\C\Driving Code\EFM8_I2C_Nunchuck_and_motor.c:276: buf[0],  buf[1], buf[2], buf[3], buf[4], buf[5]);
015A AA05       970            mov     r2,(_nunchuck_init_buf_1_56 + 0x0005)
015C 7B00       971            mov     r3,#0x00
015E AC04       972            mov     r4,(_nunchuck_init_buf_1_56 + 0x0004)
0160 7D00       973            mov     r5,#0x00
0162 850350     974            mov     _nunchuck_init_sloc0_1_0,(_nunchuck_init_buf_1_56 + 0x0003)
0165 755100     975            mov     (_nunchuck_init_sloc0_1_0 + 1),#0x00
0168 8502A0     976            mov     _nunchuck_init_sloc1_1_0,(_nunchuck_init_buf_1_56 + 0x0002)
016B 75A100     977            mov     (_nunchuck_init_sloc1_1_0 + 1),#0x00
016E 8501F0     978            mov     _nunchuck_init_sloc2_1_0,(_nunchuck_init_buf_1_56 + 0x0001)
0171 75F100     979            mov     (_nunchuck_init_sloc2_1_0 + 1),#0x00
0174 AE00       980            mov     r6,_nunchuck_init_buf_1_56
0176 7F00       981            mov     r7,#0x00
0178            982   ;        C:\Users\carso\Documents\1. School\0. Spring 2018\Elec 292\project1\elec291-292-AACHJY\Project2Files\C\Driving Code\EFM8_I2C_Nunchuck_and_motor.c:275: printf("Extension type: %02x  %02x  %02x  %02x  %02x  %02x\n", 
0178 C002       983            push    ar2
017A C003       984            push    ar3
017C C004       985            push    ar4
017E C005       986            push    ar5
0180 C050       987            push    _nunchuck_init_sloc0_1_0
0182 C051       988            push    (_nunchuck_init_sloc0_1_0 + 1)
0184 C0A0       989            push    _nunchuck_init_sloc1_1_0
0186 C0A1       990            push    (_nunchuck_init_sloc1_1_0 + 1)
0188 C0F0       991            push    _nunchuck_init_sloc2_1_0
018A C0F1       992            push    (_nunchuck_init_sloc2_1_0 + 1)
018C C006       993            push    ar6
018E C007       994            push    ar7
0190 7430       995            mov     a,#__str_0
0192 C0E0       996            push    acc
0194 74C5       997            mov     a,#(__str_0 >> 8)
0196 C0E0       998            push    acc
0198 7480       999            mov     a,#0x80
019A C0E0      1000            push    acc
019C 120100    1001            lcall   _printf
019F E581      1002            mov     a,sp
01A1 24F1      1003            add     a,#0xf1
01A3 F581      1004            mov     sp,a
01A5           1005   L008002?:
01A5           1006   ;        C:\Users\carso\Documents\1. School\0. Spring 2018\Elec 292\project1\elec291-292-AACHJY\Project2Files\C\Driving Code\EFM8_I2C_Nunchuck_and_motor.c:281: I2C_start();
01A5 120100    1007            lcall   _I2C_start
01A8           1008   ;        C:\Users\carso\Documents\1. School\0. Spring 2018\Elec 292\project1\elec291-292-AACHJY\Project2Files\C\Driving Code\EFM8_I2C_Nunchuck_and_motor.c:282: I2C_write(0xA4);
01A8 7582A4    1009            mov     dpl,#0xA4
01AB 120100    1010            lcall   _I2C_write
01AE           1011   ;        C:\Users\carso\Documents\1. School\0. Spring 2018\Elec 292\project1\elec291-292-AACHJY\Project2Files\C\Driving Code\EFM8_I2C_Nunchuck_and_motor.c:283: I2C_write(0xF0);
01AE 7582F0    1012            mov     dpl,#0xF0
01B1 120100    1013            lcall   _I2C_write
01B4           1014   ;        C:\Users\carso\Documents\1. School\0. Spring 2018\Elec 292\project1\elec291-292-AACHJY\Project2Files\C\Driving Code\EFM8_I2C_Nunchuck_and_motor.c:284: I2C_write(0xAA);
01B4 7582AA    1015            mov     dpl,#0xAA
01B7 120100    1016            lcall   _I2C_write
01BA           1017   ;        C:\Users\carso\Documents\1. School\0. Spring 2018\Elec 292\project1\elec291-292-AACHJY\Project2Files\C\Driving Code\EFM8_I2C_Nunchuck_and_motor.c:285: I2C_stop();
01BA 120100    1018            lcall   _I2C_stop
01BD           1019   ;        C:\Users\carso\Documents\1. School\0. Spring 2018\Elec 292\project1\elec291-292-AACHJY\Project2Files\C\Driving Code\EFM8_I2C_Nunchuck_and_motor.c:286: Timer4ms(1);
01BD 758201    1020            mov     dpl,#0x01
01C0 120100    1021            lcall   _Timer4ms
01C3           1022   ;        C:\Users\carso\Documents\1. School\0. Spring 2018\Elec 292\project1\elec291-292-AACHJY\Project2Files\C\Driving Code\EFM8_I2C_Nunchuck_and_motor.c:288: I2C_start();
01C3 120100    1023            lcall   _I2C_start
01C6           1024   ;        C:\Users\carso\Documents\1. School\0. Spring 2018\Elec 292\project1\elec291-292-AACHJY\Project2Files\C\Driving Code\EFM8_I2C_Nunchuck_and_motor.c:289: I2C_write(0xA4);
01C6 7582A4    1025            mov     dpl,#0xA4
01C9 120100    1026            lcall   _I2C_write
01CC           1027   ;        C:\Users\carso\Documents\1. School\0. Spring 2018\Elec 292\project1\elec291-292-AACHJY\Project2Files\C\Driving Code\EFM8_I2C_Nunchuck_and_motor.c:290: I2C_write(0x40);
01CC 758240    1028            mov     dpl,#0x40
01CF 120100    1029            lcall   _I2C_write
01D2           1030   ;        C:\Users\carso\Documents\1. School\0. Spring 2018\Elec 292\project1\elec291-292-AACHJY\Project2Files\C\Driving Code\EFM8_I2C_Nunchuck_and_motor.c:291: I2C_write(0x00);
01D2 758200    1031            mov     dpl,#0x00
01D5 120100    1032            lcall   _I2C_write
01D8           1033   ;        C:\Users\carso\Documents\1. School\0. Spring 2018\Elec 292\project1\elec291-292-AACHJY\Project2Files\C\Driving Code\EFM8_I2C_Nunchuck_and_motor.c:292: I2C_write(0x00);
01D8 758200    1034            mov     dpl,#0x00
01DB 120100    1035            lcall   _I2C_write
01DE           1036   ;        C:\Users\carso\Documents\1. School\0. Spring 2018\Elec 292\project1\elec291-292-AACHJY\Project2Files\C\Driving Code\EFM8_I2C_Nunchuck_and_motor.c:293: I2C_write(0x00);
01DE 758200    1037            mov     dpl,#0x00
01E1 120100    1038            lcall   _I2C_write
01E4           1039   ;        C:\Users\carso\Documents\1. School\0. Spring 2018\Elec 292\project1\elec291-292-AACHJY\Project2Files\C\Driving Code\EFM8_I2C_Nunchuck_and_motor.c:294: I2C_write(0x00);
01E4 758200    1040            mov     dpl,#0x00
01E7 120100    1041            lcall   _I2C_write
01EA           1042   ;        C:\Users\carso\Documents\1. School\0. Spring 2018\Elec 292\project1\elec291-292-AACHJY\Project2Files\C\Driving Code\EFM8_I2C_Nunchuck_and_motor.c:295: I2C_write(0x00);
01EA 758200    1043            mov     dpl,#0x00
01ED 120100    1044            lcall   _I2C_write
01F0           1045   ;        C:\Users\carso\Documents\1. School\0. Spring 2018\Elec 292\project1\elec291-292-AACHJY\Project2Files\C\Driving Code\EFM8_I2C_Nunchuck_and_motor.c:296: I2C_write(0x00);
01F0 758200    1046            mov     dpl,#0x00
01F3 120100    1047            lcall   _I2C_write
01F6           1048   ;        C:\Users\carso\Documents\1. School\0. Spring 2018\Elec 292\project1\elec291-292-AACHJY\Project2Files\C\Driving Code\EFM8_I2C_Nunchuck_and_motor.c:297: I2C_stop();
01F6 120100    1049            lcall   _I2C_stop
01F9           1050   ;        C:\Users\carso\Documents\1. School\0. Spring 2018\Elec 292\project1\elec291-292-AACHJY\Project2Files\C\Driving Code\EFM8_I2C_Nunchuck_and_motor.c:298: Timer4ms(1);
01F9 758201    1051            mov     dpl,#0x01
01FC 120100    1052            lcall   _Timer4ms
01FF           1053   ;        C:\Users\carso\Documents\1. School\0. Spring 2018\Elec 292\project1\elec291-292-AACHJY\Project2Files\C\Driving Code\EFM8_I2C_Nunchuck_and_motor.c:300: I2C_start();
01FF 120100    1054            lcall   _I2C_start
0202           1055   ;        C:\Users\carso\Documents\1. School\0. Spring 2018\Elec 292\project1\elec291-292-AACHJY\Project2Files\C\Driving Code\EFM8_I2C_Nunchuck_and_motor.c:301: I2C_write(0xA4);
0202 7582A4    1056            mov     dpl,#0xA4
0205 120100    1057            lcall   _I2C_write
0208           1058   ;        C:\Users\carso\Documents\1. School\0. Spring 2018\Elec 292\project1\elec291-292-AACHJY\Project2Files\C\Driving Code\EFM8_I2C_Nunchuck_and_motor.c:302: I2C_write(0x40);
0208 758240    1059            mov     dpl,#0x40
020B 120100    1060            lcall   _I2C_write
020E           1061   ;        C:\Users\carso\Documents\1. School\0. Spring 2018\Elec 292\project1\elec291-292-AACHJY\Project2Files\C\Driving Code\EFM8_I2C_Nunchuck_and_motor.c:303: I2C_write(0x00);
020E 758200    1062            mov     dpl,#0x00
0211 120100    1063            lcall   _I2C_write
0214           1064   ;        C:\Users\carso\Documents\1. School\0. Spring 2018\Elec 292\project1\elec291-292-AACHJY\Project2Files\C\Driving Code\EFM8_I2C_Nunchuck_and_motor.c:304: I2C_write(0x00);
0214 758200    1065            mov     dpl,#0x00
0217 120100    1066            lcall   _I2C_write
021A           1067   ;        C:\Users\carso\Documents\1. School\0. Spring 2018\Elec 292\project1\elec291-292-AACHJY\Project2Files\C\Driving Code\EFM8_I2C_Nunchuck_and_motor.c:305: I2C_write(0x00);
021A 758200    1068            mov     dpl,#0x00
021D 120100    1069            lcall   _I2C_write
0220           1070   ;        C:\Users\carso\Documents\1. School\0. Spring 2018\Elec 292\project1\elec291-292-AACHJY\Project2Files\C\Driving Code\EFM8_I2C_Nunchuck_and_motor.c:306: I2C_write(0x00);
0220 758200    1071            mov     dpl,#0x00
0223 120100    1072            lcall   _I2C_write
0226           1073   ;        C:\Users\carso\Documents\1. School\0. Spring 2018\Elec 292\project1\elec291-292-AACHJY\Project2Files\C\Driving Code\EFM8_I2C_Nunchuck_and_motor.c:307: I2C_write(0x00);
0226 758200    1074            mov     dpl,#0x00
0229 120100    1075            lcall   _I2C_write
022C           1076   ;        C:\Users\carso\Documents\1. School\0. Spring 2018\Elec 292\project1\elec291-292-AACHJY\Project2Files\C\Driving Code\EFM8_I2C_Nunchuck_and_motor.c:308: I2C_write(0x00);
022C 758200    1077            mov     dpl,#0x00
022F 120100    1078            lcall   _I2C_write
0232           1079   ;        C:\Users\carso\Documents\1. School\0. Spring 2018\Elec 292\project1\elec291-292-AACHJY\Project2Files\C\Driving Code\EFM8_I2C_Nunchuck_and_motor.c:309: I2C_stop();
0232 120100    1080            lcall   _I2C_stop
0235           1081   ;        C:\Users\carso\Documents\1. School\0. Spring 2018\Elec 292\project1\elec291-292-AACHJY\Project2Files\C\Driving Code\EFM8_I2C_Nunchuck_and_motor.c:310: Timer4ms(1);
0235 758201    1082            mov     dpl,#0x01
0238 120100    1083            lcall   _Timer4ms
023B           1084   ;        C:\Users\carso\Documents\1. School\0. Spring 2018\Elec 292\project1\elec291-292-AACHJY\Project2Files\C\Driving Code\EFM8_I2C_Nunchuck_and_motor.c:312: I2C_start();
023B 120100    1085            lcall   _I2C_start
023E           1086   ;        C:\Users\carso\Documents\1. School\0. Spring 2018\Elec 292\project1\elec291-292-AACHJY\Project2Files\C\Driving Code\EFM8_I2C_Nunchuck_and_motor.c:313: I2C_write(0xA4);
023E 7582A4    1087            mov     dpl,#0xA4
0241 120100    1088            lcall   _I2C_write
0244           1089   ;        C:\Users\carso\Documents\1. School\0. Spring 2018\Elec 292\project1\elec291-292-AACHJY\Project2Files\C\Driving Code\EFM8_I2C_Nunchuck_and_motor.c:314: I2C_write(0x40);
0244 758240    1090            mov     dpl,#0x40
0247 120100    1091            lcall   _I2C_write
024A           1092   ;        C:\Users\carso\Documents\1. School\0. Spring 2018\Elec 292\project1\elec291-292-AACHJY\Project2Files\C\Driving Code\EFM8_I2C_Nunchuck_and_motor.c:315: I2C_write(0x00);
024A 758200    1093            mov     dpl,#0x00
024D 120100    1094            lcall   _I2C_write
0250           1095   ;        C:\Users\carso\Documents\1. School\0. Spring 2018\Elec 292\project1\elec291-292-AACHJY\Project2Files\C\Driving Code\EFM8_I2C_Nunchuck_and_motor.c:316: I2C_write(0x00);
0250 758200    1096            mov     dpl,#0x00
0253 120100    1097            lcall   _I2C_write
0256           1098   ;        C:\Users\carso\Documents\1. School\0. Spring 2018\Elec 292\project1\elec291-292-AACHJY\Project2Files\C\Driving Code\EFM8_I2C_Nunchuck_and_motor.c:317: I2C_write(0x00);
0256 758200    1099            mov     dpl,#0x00
0259 120100    1100            lcall   _I2C_write
025C           1101   ;        C:\Users\carso\Documents\1. School\0. Spring 2018\Elec 292\project1\elec291-292-AACHJY\Project2Files\C\Driving Code\EFM8_I2C_Nunchuck_and_motor.c:318: I2C_write(0x00);
025C 758200    1102            mov     dpl,#0x00
025F 120100    1103            lcall   _I2C_write
0262           1104   ;        C:\Users\carso\Documents\1. School\0. Spring 2018\Elec 292\project1\elec291-292-AACHJY\Project2Files\C\Driving Code\EFM8_I2C_Nunchuck_and_motor.c:319: I2C_stop();
0262 120100    1105            lcall   _I2C_stop
0265           1106   ;        C:\Users\carso\Documents\1. School\0. Spring 2018\Elec 292\project1\elec291-292-AACHJY\Project2Files\C\Driving Code\EFM8_I2C_Nunchuck_and_motor.c:320: Timer4ms(1);
0265 758201    1107            mov     dpl,#0x01
0268 020100    1108            ljmp    _Timer4ms
026B           1109   ;------------------------------------------------------------
026B           1110   ;Allocation info for local variables in function 'nunchuck_getdata'
026B           1111   ;------------------------------------------------------------
026B           1112   ;s                         Allocated to registers r2 r3 r4 
026B           1113   ;i                         Allocated to registers r5 
026B           1114   ;------------------------------------------------------------
026B           1115   ;        C:\Users\carso\Documents\1. School\0. Spring 2018\Elec 292\project1\elec291-292-AACHJY\Project2Files\C\Driving Code\EFM8_I2C_Nunchuck_and_motor.c:323: void nunchuck_getdata(unsigned char * s)
026B           1116   ;        -----------------------------------------
026B           1117   ;         function nunchuck_getdata
026B           1118   ;        -----------------------------------------
026B           1119   _nunchuck_getdata:
026B AA82      1120            mov     r2,dpl
026D AB83      1121            mov     r3,dph
026F ACF0      1122            mov     r4,b
0271           1123   ;        C:\Users\carso\Documents\1. School\0. Spring 2018\Elec 292\project1\elec291-292-AACHJY\Project2Files\C\Driving Code\EFM8_I2C_Nunchuck_and_motor.c:328: I2C_start();
0271 C002      1124            push    ar2
0273 C003      1125            push    ar3
0275 C004      1126            push    ar4
0277 120100    1127            lcall   _I2C_start
027A           1128   ;        C:\Users\carso\Documents\1. School\0. Spring 2018\Elec 292\project1\elec291-292-AACHJY\Project2Files\C\Driving Code\EFM8_I2C_Nunchuck_and_motor.c:329: I2C_write(0xA4);
027A 7582A4    1129            mov     dpl,#0xA4
027D 120100    1130            lcall   _I2C_write
0280           1131   ;        C:\Users\carso\Documents\1. School\0. Spring 2018\Elec 292\project1\elec291-292-AACHJY\Project2Files\C\Driving Code\EFM8_I2C_Nunchuck_and_motor.c:330: I2C_write(0x00);
0280 758200    1132            mov     dpl,#0x00
0283 120100    1133            lcall   _I2C_write
0286           1134   ;        C:\Users\carso\Documents\1. School\0. Spring 2018\Elec 292\project1\elec291-292-AACHJY\Project2Files\C\Driving Code\EFM8_I2C_Nunchuck_and_motor.c:331: I2C_stop();
0286 120100    1135            lcall   _I2C_stop
0289           1136   ;        C:\Users\carso\Documents\1. School\0. Spring 2018\Elec 292\project1\elec291-292-AACHJY\Project2Files\C\Driving Code\EFM8_I2C_Nunchuck_and_motor.c:332: Timer4ms(3);     // 3 ms required to complete acquisition
0289 758203    1137            mov     dpl,#0x03
028C 120100    1138            lcall   _Timer4ms
028F           1139   ;        C:\Users\carso\Documents\1. School\0. Spring 2018\Elec 292\project1\elec291-292-AACHJY\Project2Files\C\Driving Code\EFM8_I2C_Nunchuck_and_motor.c:335: I2C_start();
028F 120100    1140            lcall   _I2C_start
0292           1141   ;        C:\Users\carso\Documents\1. School\0. Spring 2018\Elec 292\project1\elec291-292-AACHJY\Project2Files\C\Driving Code\EFM8_I2C_Nunchuck_and_motor.c:336: I2C_write(0xA5);
0292 7582A5    1142            mov     dpl,#0xA5
0295 120100    1143            lcall   _I2C_write
0298 D004      1144            pop     ar4
029A D003      1145            pop     ar3
029C D002      1146            pop     ar2
029E           1147   ;        C:\Users\carso\Documents\1. School\0. Spring 2018\Elec 292\project1\elec291-292-AACHJY\Project2Files\C\Driving Code\EFM8_I2C_Nunchuck_and_motor.c:339: for(i=0; i<6; i++)
029E 7D00      1148            mov     r5,#0x00
02A0           1149   L009001?:
02A0 BD06B0    1150            cjne    r5,#0x06,L009010?
02A3           1151   L009010?:
02A3 5001      1152            jnc     L009004?
02A5           1153   ;        C:\Users\carso\Documents\1. School\0. Spring 2018\Elec 292\project1\elec291-292-AACHJY\Project2Files\C\Driving Code\EFM8_I2C_Nunchuck_and_motor.c:341: s[i]=(I2C_read()^0x17)+0x17; // Read and decrypt
02A5 ED        1154            mov     a,r5
02A6 2A        1155            add     a,r2
02A7 FE        1156            mov     r6,a
02A8 E4        1157            clr     a
02A9 3B        1158            addc    a,r3
02AA FF        1159            mov     r7,a
02AB 8C00      1160            mov     ar0,r4
02AD C002      1161            push    ar2
02AF C003      1162            push    ar3
02B1 C004      1163            push    ar4
02B3 C005      1164            push    ar5
02B5 C006      1165            push    ar6
02B7 C007      1166            push    ar7
02B9 C000      1167            push    ar0
02BB 120100    1168            lcall   _I2C_read
02BE E582      1169            mov     a,dpl
02C0 D000      1170            pop     ar0
02C2 D007      1171            pop     ar7
02C4 D006      1172            pop     ar6
02C6 D005      1173            pop     ar5
02C8 D004      1174            pop     ar4
02CA D003      1175            pop     ar3
02CC D002      1176            pop     ar2
02CE 6417      1177            xrl     a,#0x17
02D0 2417      1178            add     a,#0x17
02D2 F9        1179            mov     r1,a
02D3 8E82      1180            mov     dpl,r6
02D5 8F83      1181            mov     dph,r7
02D7 88F0      1182            mov     b,r0
02D9 120100    1183            lcall   __gptrput
02DC           1184   ;        C:\Users\carso\Documents\1. School\0. Spring 2018\Elec 292\project1\elec291-292-AACHJY\Project2Files\C\Driving Code\EFM8_I2C_Nunchuck_and_motor.c:339: for(i=0; i<6; i++)
02DC 0D        1185            inc     r5
02DD 8001      1186            sjmp    L009001?
02DF           1187   L009004?:
02DF           1188   ;        C:\Users\carso\Documents\1. School\0. Spring 2018\Elec 292\project1\elec291-292-AACHJY\Project2Files\C\Driving Code\EFM8_I2C_Nunchuck_and_motor.c:343: ACK=0;
02DF C2C1      1189            clr     _ACK
02E1           1190   ;        C:\Users\carso\Documents\1. School\0. Spring 2018\Elec 292\project1\elec291-292-AACHJY\Project2Files\C\Driving Code\EFM8_I2C_Nunchuck_and_motor.c:344: I2C_stop();
02E1 020100    1191            ljmp    _I2C_stop
02E4           1192   ;------------------------------------------------------------
02E4           1193   ;Allocation info for local variables in function 'Timer3us'
02E4           1194   ;------------------------------------------------------------
02E4           1195   ;us                        Allocated to registers r2 
02E4           1196   ;i                         Allocated to registers r3 
02E4           1197   ;------------------------------------------------------------
02E4           1198   ;        C:\Users\carso\Documents\1. School\0. Spring 2018\Elec 292\project1\elec291-292-AACHJY\Project2Files\C\Driving Code\EFM8_I2C_Nunchuck_and_motor.c:348: void Timer3us(unsigned char us)
02E4           1199   ;        -----------------------------------------
02E4           1200   ;         function Timer3us
02E4           1201   ;        -----------------------------------------
02E4           1202   _Timer3us:
02E4 AA82      1203            mov     r2,dpl
02E6           1204   ;        C:\Users\carso\Documents\1. School\0. Spring 2018\Elec 292\project1\elec291-292-AACHJY\Project2Files\C\Driving Code\EFM8_I2C_Nunchuck_and_motor.c:353: CKCON0|=0b_0100_0000;
02E6 438E40    1205            orl     _CKCON0,#0x40
02E9           1206   ;        C:\Users\carso\Documents\1. School\0. Spring 2018\Elec 292\project1\elec291-292-AACHJY\Project2Files\C\Driving Code\EFM8_I2C_Nunchuck_and_motor.c:355: TMR3RL = (-(SYSCLK)/1000000L); // Set Timer3 to overflow in 1us.
02E9 7592B8    1207            mov     _TMR3RL,#0xB8
02EC 7593FF    1208            mov     (_TMR3RL >> 8),#0xFF
02EF           1209   ;        C:\Users\carso\Documents\1. School\0. Spring 2018\Elec 292\project1\elec291-292-AACHJY\Project2Files\C\Driving Code\EFM8_I2C_Nunchuck_and_motor.c:356: TMR3 = TMR3RL;                 // Initialize Timer3 for first overflow
02EF 859294    1210            mov     _TMR3,_TMR3RL
02F2 859395    1211            mov     (_TMR3 >> 8),(_TMR3RL >> 8)
02F5           1212   ;        C:\Users\carso\Documents\1. School\0. Spring 2018\Elec 292\project1\elec291-292-AACHJY\Project2Files\C\Driving Code\EFM8_I2C_Nunchuck_and_motor.c:358: TMR3CN0 = 0x04;                 // Sart Timer3 and clear overflow flag
02F5 759104    1213            mov     _TMR3CN0,#0x04
02F8           1214   ;        C:\Users\carso\Documents\1. School\0. Spring 2018\Elec 292\project1\elec291-292-AACHJY\Project2Files\C\Driving Code\EFM8_I2C_Nunchuck_and_motor.c:359: for (i = 0; i < us; i++)       // Count <us> overflows
02F8 7B00      1215            mov     r3,#0x00
02FA           1216   L010004?:
02FA C3        1217            clr     c
02FB EB        1218            mov     a,r3
02FC 9A        1219            subb    a,r2
02FD 5001      1220            jnc     L010007?
02FF           1221   ;        C:\Users\carso\Documents\1. School\0. Spring 2018\Elec 292\project1\elec291-292-AACHJY\Project2Files\C\Driving Code\EFM8_I2C_Nunchuck_and_motor.c:361: while (!(TMR3CN0 & 0x80));  // Wait for overflow
02FF           1222   L010001?:
02FF E591      1223            mov     a,_TMR3CN0
0301 30E7F0    1224            jnb     acc.7,L010001?
0304           1225   ;        C:\Users\carso\Documents\1. School\0. Spring 2018\Elec 292\project1\elec291-292-AACHJY\Project2Files\C\Driving Code\EFM8_I2C_Nunchuck_and_motor.c:362: TMR3CN0 &= ~(0x80);         // Clear overflow indicator
0304 53917F    1226            anl     _TMR3CN0,#0x7F
0307           1227   ;        C:\Users\carso\Documents\1. School\0. Spring 2018\Elec 292\project1\elec291-292-AACHJY\Project2Files\C\Driving Code\EFM8_I2C_Nunchuck_and_motor.c:359: for (i = 0; i < us; i++)       // Count <us> overflows
0307 0B        1228            inc     r3
0308 8001      1229            sjmp    L010004?
030A           1230   L010007?:
030A           1231   ;        C:\Users\carso\Documents\1. School\0. Spring 2018\Elec 292\project1\elec291-292-AACHJY\Project2Files\C\Driving Code\EFM8_I2C_Nunchuck_and_motor.c:364: TMR3CN0 = 0 ;                   // Stop Timer3 and clear overflow flag
030A 759100    1232            mov     _TMR3CN0,#0x00
030D 22        1233            ret
030E           1234   ;------------------------------------------------------------
030E           1235   ;Allocation info for local variables in function 'waitms'
030E           1236   ;------------------------------------------------------------
030E           1237   ;ms                        Allocated to registers r2 r3 
030E           1238   ;j                         Allocated to registers r4 r5 
030E           1239   ;k                         Allocated to registers r6 
030E           1240   ;------------------------------------------------------------
030E           1241   ;        C:\Users\carso\Documents\1. School\0. Spring 2018\Elec 292\project1\elec291-292-AACHJY\Project2Files\C\Driving Code\EFM8_I2C_Nunchuck_and_motor.c:367: void waitms (unsigned int ms)
030E           1242   ;        -----------------------------------------
030E           1243   ;         function waitms
030E           1244   ;        -----------------------------------------
030E           1245   _waitms:
030E AA82      1246            mov     r2,dpl
0310 AB83      1247            mov     r3,dph
0312           1248   ;        C:\Users\carso\Documents\1. School\0. Spring 2018\Elec 292\project1\elec291-292-AACHJY\Project2Files\C\Driving Code\EFM8_I2C_Nunchuck_and_motor.c:371: for(j=0; j<ms; j++)
0312 7C00      1249            mov     r4,#0x00
0314 7D00      1250            mov     r5,#0x00
0316           1251   L011005?:
0316 C3        1252            clr     c
0317 EC        1253            mov     a,r4
0318 9A        1254            subb    a,r2
0319 ED        1255            mov     a,r5
031A 9B        1256            subb    a,r3
031B 5001      1257            jnc     L011009?
031D           1258   ;        C:\Users\carso\Documents\1. School\0. Spring 2018\Elec 292\project1\elec291-292-AACHJY\Project2Files\C\Driving Code\EFM8_I2C_Nunchuck_and_motor.c:372: for (k=0; k<4; k++) Timer3us(250);
031D 7E00      1259            mov     r6,#0x00
031F           1260   L011001?:
031F BE04F0    1261            cjne    r6,#0x04,L011018?
0322           1262   L011018?:
0322 5001      1263            jnc     L011007?
0324 7582FA    1264            mov     dpl,#0xFA
0327 C002      1265            push    ar2
0329 C003      1266            push    ar3
032B C004      1267            push    ar4
032D C005      1268            push    ar5
032F C006      1269            push    ar6
0331 120100    1270            lcall   _Timer3us
0334 D006      1271            pop     ar6
0336 D005      1272            pop     ar5
0338 D004      1273            pop     ar4
033A D003      1274            pop     ar3
033C D002      1275            pop     ar2
033E 0E        1276            inc     r6
033F 8001      1277            sjmp    L011001?
0341           1278   L011007?:
0341           1279   ;        C:\Users\carso\Documents\1. School\0. Spring 2018\Elec 292\project1\elec291-292-AACHJY\Project2Files\C\Driving Code\EFM8_I2C_Nunchuck_and_motor.c:371: for(j=0; j<ms; j++)
0341 0C        1280            inc     r4
0342 BC0030    1281            cjne    r4,#0x00,L011005?
0345 0D        1282            inc     r5
0346 8001      1283            sjmp    L011005?
0348           1284   L011009?:
0348 22        1285            ret
0349           1286   ;------------------------------------------------------------
0349           1287   ;Allocation info for local variables in function 'getsn'
0349           1288   ;------------------------------------------------------------
0349           1289   ;len                       Allocated with name '_getsn_PARM_2'
0349           1290   ;buff                      Allocated with name '_getsn_buff_1_67'
0349           1291   ;j                         Allocated with name '_getsn_sloc0_1_0'
0349           1292   ;c                         Allocated to registers r3 
0349           1293   ;sloc0                     Allocated with name '_getsn_sloc0_1_0'
0349           1294   ;------------------------------------------------------------
0349           1295   ;        C:\Users\carso\Documents\1. School\0. Spring 2018\Elec 292\project1\elec291-292-AACHJY\Project2Files\C\Driving Code\EFM8_I2C_Nunchuck_and_motor.c:375: int getsn (char * buff, int len)
0349           1296   ;        -----------------------------------------
0349           1297   ;         function getsn
0349           1298   ;        -----------------------------------------
0349           1299   _getsn:
0349 858240    1300            mov     _getsn_buff_1_67,dpl
034C 858341    1301            mov     (_getsn_buff_1_67 + 1),dph
034F 85F042    1302            mov     (_getsn_buff_1_67 + 2),b
0352           1303   ;        C:\Users\carso\Documents\1. School\0. Spring 2018\Elec 292\project1\elec291-292-AACHJY\Project2Files\C\Driving Code\EFM8_I2C_Nunchuck_and_motor.c:380: for(j=0; j<(len-1); j++)
0352 E4        1304            clr     a
0353 F590      1305            mov     _getsn_sloc0_1_0,a
0355 F591      1306            mov     (_getsn_sloc0_1_0 + 1),a
0357 E550      1307            mov     a,_getsn_PARM_2
0359 24FF      1308            add     a,#0xff
035B FF        1309            mov     r7,a
035C E551      1310            mov     a,(_getsn_PARM_2 + 1)
035E 34FF      1311            addc    a,#0xff
0360 F8        1312            mov     r0,a
0361 7900      1313            mov     r1,#0x00
0363 7A00      1314            mov     r2,#0x00
0365           1315   L012005?:
0365 C3        1316            clr     c
0366 E9        1317            mov     a,r1
0367 9F        1318            subb    a,r7
0368 EA        1319            mov     a,r2
0369 6480      1320            xrl     a,#0x80
036B 88F0      1321            mov     b,r0
036D 63F080    1322            xrl     b,#0x80
0370 95F0      1323            subb    a,b
0372 5001      1324            jnc     L012008?
0374           1325   ;        C:\Users\carso\Documents\1. School\0. Spring 2018\Elec 292\project1\elec291-292-AACHJY\Project2Files\C\Driving Code\EFM8_I2C_Nunchuck_and_motor.c:382: c=getchar();
0374 C002      1326            push    ar2
0376 C007      1327            push    ar7
0378 C000      1328            push    ar0
037A C001      1329            push    ar1
037C 120100    1330            lcall   _getchar
037F AB82      1331            mov     r3,dpl
0381 D001      1332            pop     ar1
0383 D000      1333            pop     ar0
0385 D007      1334            pop     ar7
0387 D002      1335            pop     ar2
0389           1336   ;        C:\Users\carso\Documents\1. School\0. Spring 2018\Elec 292\project1\elec291-292-AACHJY\Project2Files\C\Driving Code\EFM8_I2C_Nunchuck_and_motor.c:383: if ( (c=='\n') || (c=='\r') )
0389 BB0A30    1337            cjne    r3,#0x0A,L012015?
038C 8001      1338            sjmp    L012001?
038E           1339   L012015?:
038E BB0DB0    1340            cjne    r3,#0x0D,L012002?
0391           1341   L012001?:
0391           1342   ;        C:\Users\carso\Documents\1. School\0. Spring 2018\Elec 292\project1\elec291-292-AACHJY\Project2Files\C\Driving Code\EFM8_I2C_Nunchuck_and_motor.c:385: buff[j]=0;
0391 E590      1343            mov     a,_getsn_sloc0_1_0
0393 2540      1344            add     a,_getsn_buff_1_67
0395 FC        1345            mov     r4,a
0396 E591      1346            mov     a,(_getsn_sloc0_1_0 + 1)
0398 3541      1347            addc    a,(_getsn_buff_1_67 + 1)
039A FD        1348            mov     r5,a
039B AE42      1349            mov     r6,(_getsn_buff_1_67 + 2)
039D 8C82      1350            mov     dpl,r4
039F 8D83      1351            mov     dph,r5
03A1 8EF0      1352            mov     b,r6
03A3 E4        1353            clr     a
03A4 120100    1354            lcall   __gptrput
03A7           1355   ;        C:\Users\carso\Documents\1. School\0. Spring 2018\Elec 292\project1\elec291-292-AACHJY\Project2Files\C\Driving Code\EFM8_I2C_Nunchuck_and_motor.c:386: return j;
03A7 859082    1356            mov     dpl,_getsn_sloc0_1_0
03AA 859183    1357            mov     dph,(_getsn_sloc0_1_0 + 1)
03AD 22        1358            ret
03AE           1359   L012002?:
03AE           1360   ;        C:\Users\carso\Documents\1. School\0. Spring 2018\Elec 292\project1\elec291-292-AACHJY\Project2Files\C\Driving Code\EFM8_I2C_Nunchuck_and_motor.c:390: buff[j]=c;
03AE E9        1361            mov     a,r1
03AF 2540      1362            add     a,_getsn_buff_1_67
03B1 FC        1363            mov     r4,a
03B2 EA        1364            mov     a,r2
03B3 3541      1365            addc    a,(_getsn_buff_1_67 + 1)
03B5 FD        1366            mov     r5,a
03B6 AE42      1367            mov     r6,(_getsn_buff_1_67 + 2)
03B8 8C82      1368            mov     dpl,r4
03BA 8D83      1369            mov     dph,r5
03BC 8EF0      1370            mov     b,r6
03BE EB        1371            mov     a,r3
03BF 120100    1372            lcall   __gptrput
03C2           1373   ;        C:\Users\carso\Documents\1. School\0. Spring 2018\Elec 292\project1\elec291-292-AACHJY\Project2Files\C\Driving Code\EFM8_I2C_Nunchuck_and_motor.c:380: for(j=0; j<(len-1); j++)
03C2 09        1374            inc     r1
03C3 B900F0    1375            cjne    r1,#0x00,L012018?
03C6 0A        1376            inc     r2
03C7           1377   L012018?:
03C7 8990      1378            mov     _getsn_sloc0_1_0,r1
03C9 8A91      1379            mov     (_getsn_sloc0_1_0 + 1),r2
03CB 8001      1380            sjmp    L012005?
03CD           1381   L012008?:
03CD           1382   ;        C:\Users\carso\Documents\1. School\0. Spring 2018\Elec 292\project1\elec291-292-AACHJY\Project2Files\C\Driving Code\EFM8_I2C_Nunchuck_and_motor.c:393: buff[j]='\0';
03CD E590      1383            mov     a,_getsn_sloc0_1_0
03CF 2540      1384            add     a,_getsn_buff_1_67
03D1 FA        1385            mov     r2,a
03D2 E591      1386            mov     a,(_getsn_sloc0_1_0 + 1)
03D4 3541      1387            addc    a,(_getsn_buff_1_67 + 1)
03D6 FB        1388            mov     r3,a
03D7 AC42      1389            mov     r4,(_getsn_buff_1_67 + 2)
03D9 8A82      1390            mov     dpl,r2
03DB 8B83      1391            mov     dph,r3
03DD 8CF0      1392            mov     b,r4
03DF E4        1393            clr     a
03E0 120100    1394            lcall   __gptrput
03E3           1395   ;        C:\Users\carso\Documents\1. School\0. Spring 2018\Elec 292\project1\elec291-292-AACHJY\Project2Files\C\Driving Code\EFM8_I2C_Nunchuck_and_motor.c:394: return len;
03E3 855082    1396            mov     dpl,_getsn_PARM_2
03E6 855183    1397            mov     dph,(_getsn_PARM_2 + 1)
03E9 22        1398            ret
03EA           1399   ;------------------------------------------------------------
03EA           1400   ;Allocation info for local variables in function 'Timer2_ISR'
03EA           1401   ;------------------------------------------------------------
03EA           1402   ;------------------------------------------------------------
03EA           1403   ;        C:\Users\carso\Documents\1. School\0. Spring 2018\Elec 292\project1\elec291-292-AACHJY\Project2Files\C\Driving Code\EFM8_I2C_Nunchuck_and_motor.c:397: void Timer2_ISR (void) interrupt 5
03EA           1404   ;        -----------------------------------------
03EA           1405   ;         function Timer2_ISR
03EA           1406   ;        -----------------------------------------
03EA           1407   _Timer2_ISR:
03EA C0E0      1408            push    acc
03EC C0D0      1409            push    psw
03EE 75D000    1410            mov     psw,#0x00
03F1           1411   ;        C:\Users\carso\Documents\1. School\0. Spring 2018\Elec 292\project1\elec291-292-AACHJY\Project2Files\C\Driving Code\EFM8_I2C_Nunchuck_and_motor.c:399: TF2H = 0; // Clear Timer2 interrupt flag
03F1 C2CF      1412            clr     _TF2H
03F3           1413   ;        C:\Users\carso\Documents\1. School\0. Spring 2018\Elec 292\project1\elec291-292-AACHJY\Project2Files\C\Driving Code\EFM8_I2C_Nunchuck_and_motor.c:401: pwm_count++;
03F3 05F0      1414            inc     _pwm_count
03F5           1415   ;        C:\Users\carso\Documents\1. School\0. Spring 2018\Elec 292\project1\elec291-292-AACHJY\Project2Files\C\Driving Code\EFM8_I2C_Nunchuck_and_motor.c:402: if(pwm_count>100) pwm_count=0;
03F5 E5F0      1416            mov     a,_pwm_count
03F7 249B      1417            add     a,#0xff - 0x64
03F9 5001      1418            jnc     L013002?
03FB 75F000    1419            mov     _pwm_count,#0x00
03FE           1420   L013002?:
03FE           1421   ;        C:\Users\carso\Documents\1. School\0. Spring 2018\Elec 292\project1\elec291-292-AACHJY\Project2Files\C\Driving Code\EFM8_I2C_Nunchuck_and_motor.c:405: Mot1_forward=pwm_count>number1?0:1;
03FE C3        1422            clr     c
03FF E550      1423            mov     a,_number1
0401 95F0      1424            subb    a,_pwm_count
0403 9250      1425            mov  _Timer2_ISR_sloc0_1_0,c
0405 B3        1426            cpl     c
0406 9296      1427            mov     _P1_6,c
0408           1428   ;        C:\Users\carso\Documents\1. School\0. Spring 2018\Elec 292\project1\elec291-292-AACHJY\Project2Files\C\Driving Code\EFM8_I2C_Nunchuck_and_motor.c:407: Mot1_reverse=pwm_count>number2?0:1;
0408 C3        1429            clr     c
0409 E510      1430            mov     a,_number2
040B 95F0      1431            subb    a,_pwm_count
040D 9250      1432            mov  _Timer2_ISR_sloc0_1_0,c
040F B3        1433            cpl     c
0410 9297      1434            mov     _P1_7,c
0412           1435   ;        C:\Users\carso\Documents\1. School\0. Spring 2018\Elec 292\project1\elec291-292-AACHJY\Project2Files\C\Driving Code\EFM8_I2C_Nunchuck_and_motor.c:409: Mot2_forward=pwm_count>number3?0:1;
0412 C3        1436            clr     c
0413 E5D0      1437            mov     a,_number3
0415 95F0      1438            subb    a,_pwm_count
0417 9250      1439            mov  _Timer2_ISR_sloc0_1_0,c
0419 B3        1440            cpl     c
041A 9293      1441            mov     _P1_3,c
041C           1442   ;        C:\Users\carso\Documents\1. School\0. Spring 2018\Elec 292\project1\elec291-292-AACHJY\Project2Files\C\Driving Code\EFM8_I2C_Nunchuck_and_motor.c:410: Mot2_reverse=pwm_count>number4?0:1;
041C C3        1443            clr     c
041D E590      1444            mov     a,_number4
041F 95F0      1445            subb    a,_pwm_count
0421 9250      1446            mov  _Timer2_ISR_sloc0_1_0,c
0423 B3        1447            cpl     c
0424 9294      1448            mov     _P1_4,c
0426 D0D0      1449            pop     psw
0428 D0E0      1450            pop     acc
042A 32        1451            reti
042B           1452   ;        eliminated unneeded push/pop dpl
042B           1453   ;        eliminated unneeded push/pop dph
042B           1454   ;        eliminated unneeded push/pop b
042B           1455   ;------------------------------------------------------------
042B           1456   ;Allocation info for local variables in function 'go_straight'
042B           1457   ;------------------------------------------------------------
042B           1458   ;speed                     Allocated to registers r2 
042B           1459   ;------------------------------------------------------------
042B           1460   ;        C:\Users\carso\Documents\1. School\0. Spring 2018\Elec 292\project1\elec291-292-AACHJY\Project2Files\C\Driving Code\EFM8_I2C_Nunchuck_and_motor.c:425: void go_straight(char speed){
042B           1461   ;        -----------------------------------------
042B           1462   ;         function go_straight
042B           1463   ;        -----------------------------------------
042B           1464   _go_straight:
042B AA82      1465            mov     r2,dpl
042D           1466   ;        C:\Users\carso\Documents\1. School\0. Spring 2018\Elec 292\project1\elec291-292-AACHJY\Project2Files\C\Driving Code\EFM8_I2C_Nunchuck_and_motor.c:427: number1=speed;
042D 8A50      1467            mov     _number1,r2
042F           1468   ;        C:\Users\carso\Documents\1. School\0. Spring 2018\Elec 292\project1\elec291-292-AACHJY\Project2Files\C\Driving Code\EFM8_I2C_Nunchuck_and_motor.c:428: number3=speed;
042F 8AD0      1469            mov     _number3,r2
0431           1470   ;        C:\Users\carso\Documents\1. School\0. Spring 2018\Elec 292\project1\elec291-292-AACHJY\Project2Files\C\Driving Code\EFM8_I2C_Nunchuck_and_motor.c:429: number2=0;
0431 751000    1471            mov     _number2,#0x00
0434           1472   ;        C:\Users\carso\Documents\1. School\0. Spring 2018\Elec 292\project1\elec291-292-AACHJY\Project2Files\C\Driving Code\EFM8_I2C_Nunchuck_and_motor.c:430: number4=0;
0434 759000    1473            mov     _number4,#0x00
0437 22        1474            ret
0438           1475   ;------------------------------------------------------------
0438           1476   ;Allocation info for local variables in function 'go_reverse'
0438           1477   ;------------------------------------------------------------
0438           1478   ;speed                     Allocated to registers r2 
0438           1479   ;------------------------------------------------------------
0438           1480   ;        C:\Users\carso\Documents\1. School\0. Spring 2018\Elec 292\project1\elec291-292-AACHJY\Project2Files\C\Driving Code\EFM8_I2C_Nunchuck_and_motor.c:434: void go_reverse(char speed){
0438           1481   ;        -----------------------------------------
0438           1482   ;         function go_reverse
0438           1483   ;        -----------------------------------------
0438           1484   _go_reverse:
0438 AA82      1485            mov     r2,dpl
043A           1486   ;        C:\Users\carso\Documents\1. School\0. Spring 2018\Elec 292\project1\elec291-292-AACHJY\Project2Files\C\Driving Code\EFM8_I2C_Nunchuck_and_motor.c:436: number1=0;
043A 755000    1487            mov     _number1,#0x00
043D           1488   ;        C:\Users\carso\Documents\1. School\0. Spring 2018\Elec 292\project1\elec291-292-AACHJY\Project2Files\C\Driving Code\EFM8_I2C_Nunchuck_and_motor.c:437: number3=0;
043D 75D000    1489            mov     _number3,#0x00
0440           1490   ;        C:\Users\carso\Documents\1. School\0. Spring 2018\Elec 292\project1\elec291-292-AACHJY\Project2Files\C\Driving Code\EFM8_I2C_Nunchuck_and_motor.c:438: number2=speed;
0440 8A10      1491            mov     _number2,r2
0442           1492   ;        C:\Users\carso\Documents\1. School\0. Spring 2018\Elec 292\project1\elec291-292-AACHJY\Project2Files\C\Driving Code\EFM8_I2C_Nunchuck_and_motor.c:439: number4=speed;
0442 8A90      1493            mov     _number4,r2
0444 22        1494            ret
0445           1495   ;------------------------------------------------------------
0445           1496   ;Allocation info for local variables in function 'turn_west'
0445           1497   ;------------------------------------------------------------
0445           1498   ;speed                     Allocated to registers r2 
0445           1499   ;------------------------------------------------------------
0445           1500   ;        C:\Users\carso\Documents\1. School\0. Spring 2018\Elec 292\project1\elec291-292-AACHJY\Project2Files\C\Driving Code\EFM8_I2C_Nunchuck_and_motor.c:443: void turn_west(char speed ){
0445           1501   ;        -----------------------------------------
0445           1502   ;         function turn_west
0445           1503   ;        -----------------------------------------
0445           1504   _turn_west:
0445 AA82      1505            mov     r2,dpl
0447           1506   ;        C:\Users\carso\Documents\1. School\0. Spring 2018\Elec 292\project1\elec291-292-AACHJY\Project2Files\C\Driving Code\EFM8_I2C_Nunchuck_and_motor.c:446: number1=0;
0447 755000    1507            mov     _number1,#0x00
044A           1508   ;        C:\Users\carso\Documents\1. School\0. Spring 2018\Elec 292\project1\elec291-292-AACHJY\Project2Files\C\Driving Code\EFM8_I2C_Nunchuck_and_motor.c:447: number3=speed;
044A 8AD0      1509            mov     _number3,r2
044C           1510   ;        C:\Users\carso\Documents\1. School\0. Spring 2018\Elec 292\project1\elec291-292-AACHJY\Project2Files\C\Driving Code\EFM8_I2C_Nunchuck_and_motor.c:448: number2=speed;
044C 8A10      1511            mov     _number2,r2
044E           1512   ;        C:\Users\carso\Documents\1. School\0. Spring 2018\Elec 292\project1\elec291-292-AACHJY\Project2Files\C\Driving Code\EFM8_I2C_Nunchuck_and_motor.c:449: number4=0;
044E 759000    1513            mov     _number4,#0x00
0451 22        1514            ret
0452           1515   ;------------------------------------------------------------
0452           1516   ;Allocation info for local variables in function 'turn_east'
0452           1517   ;------------------------------------------------------------
0452           1518   ;speed                     Allocated to registers r2 
0452           1519   ;------------------------------------------------------------
0452           1520   ;        C:\Users\carso\Documents\1. School\0. Spring 2018\Elec 292\project1\elec291-292-AACHJY\Project2Files\C\Driving Code\EFM8_I2C_Nunchuck_and_motor.c:452: void turn_east(char speed){
0452           1521   ;        -----------------------------------------
0452           1522   ;         function turn_east
0452           1523   ;        -----------------------------------------
0452           1524   _turn_east:
0452 AA82      1525            mov     r2,dpl
0454           1526   ;        C:\Users\carso\Documents\1. School\0. Spring 2018\Elec 292\project1\elec291-292-AACHJY\Project2Files\C\Driving Code\EFM8_I2C_Nunchuck_and_motor.c:454: number1=speed;
0454 8A50      1527            mov     _number1,r2
0456           1528   ;        C:\Users\carso\Documents\1. School\0. Spring 2018\Elec 292\project1\elec291-292-AACHJY\Project2Files\C\Driving Code\EFM8_I2C_Nunchuck_and_motor.c:455: number3=0;
0456 75D000    1529            mov     _number3,#0x00
0459           1530   ;        C:\Users\carso\Documents\1. School\0. Spring 2018\Elec 292\project1\elec291-292-AACHJY\Project2Files\C\Driving Code\EFM8_I2C_Nunchuck_and_motor.c:456: number2=0;
0459 751000    1531            mov     _number2,#0x00
045C           1532   ;        C:\Users\carso\Documents\1. School\0. Spring 2018\Elec 292\project1\elec291-292-AACHJY\Project2Files\C\Driving Code\EFM8_I2C_Nunchuck_and_motor.c:457: number4=speed;
045C 8A90      1533            mov     _number4,r2
045E 22        1534            ret
045F           1535   ;------------------------------------------------------------
045F           1536   ;Allocation info for local variables in function 'turn_NW'
045F           1537   ;------------------------------------------------------------
045F           1538   ;speed                     Allocated to registers r2 
045F           1539   ;------------------------------------------------------------
045F           1540   ;        C:\Users\carso\Documents\1. School\0. Spring 2018\Elec 292\project1\elec291-292-AACHJY\Project2Files\C\Driving Code\EFM8_I2C_Nunchuck_and_motor.c:461: void turn_NW(char speed){
045F           1541   ;        -----------------------------------------
045F           1542   ;         function turn_NW
045F           1543   ;        -----------------------------------------
045F           1544   _turn_NW:
045F AA82      1545            mov     r2,dpl
0461           1546   ;        C:\Users\carso\Documents\1. School\0. Spring 2018\Elec 292\project1\elec291-292-AACHJY\Project2Files\C\Driving Code\EFM8_I2C_Nunchuck_and_motor.c:463: number1=speed/3;
0461 C2D5      1547            clr     F0
0463 75F003    1548            mov     b,#0x03
0466 EA        1549            mov     a,r2
0467 30E7F0    1550            jnb     acc.7,L018003?
046A B2D5      1551            cpl     F0
046C F4        1552            cpl     a
046D 04        1553            inc     a
046E           1554   L018003?:
046E 84        1555            div     ab
046F 30D530    1556            jnb     F0,L018004?
0472 F4        1557            cpl     a
0473 04        1558            inc     a
0474           1559   L018004?:
0474 F550      1560            mov     _number1,a
0476           1561   ;        C:\Users\carso\Documents\1. School\0. Spring 2018\Elec 292\project1\elec291-292-AACHJY\Project2Files\C\Driving Code\EFM8_I2C_Nunchuck_and_motor.c:464: number3=speed;
0476 8AD0      1562            mov     _number3,r2
0478           1563   ;        C:\Users\carso\Documents\1. School\0. Spring 2018\Elec 292\project1\elec291-292-AACHJY\Project2Files\C\Driving Code\EFM8_I2C_Nunchuck_and_motor.c:465: number2=0;
0478 751000    1564            mov     _number2,#0x00
047B           1565   ;        C:\Users\carso\Documents\1. School\0. Spring 2018\Elec 292\project1\elec291-292-AACHJY\Project2Files\C\Driving Code\EFM8_I2C_Nunchuck_and_motor.c:466: number4=0;
047B 759000    1566            mov     _number4,#0x00
047E 22        1567            ret
047F           1568   ;------------------------------------------------------------
047F           1569   ;Allocation info for local variables in function 'turn_NE'
047F           1570   ;------------------------------------------------------------
047F           1571   ;speed                     Allocated to registers r2 
047F           1572   ;------------------------------------------------------------
047F           1573   ;        C:\Users\carso\Documents\1. School\0. Spring 2018\Elec 292\project1\elec291-292-AACHJY\Project2Files\C\Driving Code\EFM8_I2C_Nunchuck_and_motor.c:470: void turn_NE(char speed){
047F           1574   ;        -----------------------------------------
047F           1575   ;         function turn_NE
047F           1576   ;        -----------------------------------------
047F           1577   _turn_NE:
047F AA82      1578            mov     r2,dpl
0481           1579   ;        C:\Users\carso\Documents\1. School\0. Spring 2018\Elec 292\project1\elec291-292-AACHJY\Project2Files\C\Driving Code\EFM8_I2C_Nunchuck_and_motor.c:472: number1=speed;
0481 8A50      1580            mov     _number1,r2
0483           1581   ;        C:\Users\carso\Documents\1. School\0. Spring 2018\Elec 292\project1\elec291-292-AACHJY\Project2Files\C\Driving Code\EFM8_I2C_Nunchuck_and_motor.c:473: number3=speed/3;
0483 C2D5      1582            clr     F0
0485 75F003    1583            mov     b,#0x03
0488 EA        1584            mov     a,r2
0489 30E770    1585            jnb     acc.7,L019003?
048C B2D5      1586            cpl     F0
048E F4        1587            cpl     a
048F 04        1588            inc     a
0490           1589   L019003?:
0490 84        1590            div     ab
0491 30D5B0    1591            jnb     F0,L019004?
0494 F4        1592            cpl     a
0495 04        1593            inc     a
0496           1594   L019004?:
0496 F5D0      1595            mov     _number3,a
0498           1596   ;        C:\Users\carso\Documents\1. School\0. Spring 2018\Elec 292\project1\elec291-292-AACHJY\Project2Files\C\Driving Code\EFM8_I2C_Nunchuck_and_motor.c:474: number2=0;
0498 751000    1597            mov     _number2,#0x00
049B           1598   ;        C:\Users\carso\Documents\1. School\0. Spring 2018\Elec 292\project1\elec291-292-AACHJY\Project2Files\C\Driving Code\EFM8_I2C_Nunchuck_and_motor.c:475: number4=0;
049B 759000    1599            mov     _number4,#0x00
049E 22        1600            ret
049F           1601   ;------------------------------------------------------------
049F           1602   ;Allocation info for local variables in function 'turn_NNE'
049F           1603   ;------------------------------------------------------------
049F           1604   ;speed                     Allocated to registers r2 
049F           1605   ;------------------------------------------------------------
049F           1606   ;        C:\Users\carso\Documents\1. School\0. Spring 2018\Elec 292\project1\elec291-292-AACHJY\Project2Files\C\Driving Code\EFM8_I2C_Nunchuck_and_motor.c:478: void turn_NNE(char speed){
049F           1607   ;        -----------------------------------------
049F           1608   ;         function turn_NNE
049F           1609   ;        -----------------------------------------
049F           1610   _turn_NNE:
049F AA82      1611            mov     r2,dpl
04A1           1612   ;        C:\Users\carso\Documents\1. School\0. Spring 2018\Elec 292\project1\elec291-292-AACHJY\Project2Files\C\Driving Code\EFM8_I2C_Nunchuck_and_motor.c:479: number1=speed;
04A1 8A50      1613            mov     _number1,r2
04A3           1614   ;        C:\Users\carso\Documents\1. School\0. Spring 2018\Elec 292\project1\elec291-292-AACHJY\Project2Files\C\Driving Code\EFM8_I2C_Nunchuck_and_motor.c:480: number3=speed/2;
04A3 C2D5      1615            clr     F0
04A5 75F002    1616            mov     b,#0x02
04A8 EA        1617            mov     a,r2
04A9 30E7F0    1618            jnb     acc.7,L020003?
04AC B2D5      1619            cpl     F0
04AE F4        1620            cpl     a
04AF 04        1621            inc     a
04B0           1622   L020003?:
04B0 84        1623            div     ab
04B1 30D530    1624            jnb     F0,L020004?
04B4 F4        1625            cpl     a
04B5 04        1626            inc     a
04B6           1627   L020004?:
04B6 F5D0      1628            mov     _number3,a
04B8           1629   ;        C:\Users\carso\Documents\1. School\0. Spring 2018\Elec 292\project1\elec291-292-AACHJY\Project2Files\C\Driving Code\EFM8_I2C_Nunchuck_and_motor.c:481: number2=0;
04B8 751000    1630            mov     _number2,#0x00
04BB           1631   ;        C:\Users\carso\Documents\1. School\0. Spring 2018\Elec 292\project1\elec291-292-AACHJY\Project2Files\C\Driving Code\EFM8_I2C_Nunchuck_and_motor.c:482: number4=0;
04BB 759000    1632            mov     _number4,#0x00
04BE 22        1633            ret
04BF           1634   ;------------------------------------------------------------
04BF           1635   ;Allocation info for local variables in function 'turn_NNW'
04BF           1636   ;------------------------------------------------------------
04BF           1637   ;speed                     Allocated to registers r2 
04BF           1638   ;------------------------------------------------------------
04BF           1639   ;        C:\Users\carso\Documents\1. School\0. Spring 2018\Elec 292\project1\elec291-292-AACHJY\Project2Files\C\Driving Code\EFM8_I2C_Nunchuck_and_motor.c:485: void turn_NNW(char speed){
04BF           1640   ;        -----------------------------------------
04BF           1641   ;         function turn_NNW
04BF           1642   ;        -----------------------------------------
04BF           1643   _turn_NNW:
04BF AA82      1644            mov     r2,dpl
04C1           1645   ;        C:\Users\carso\Documents\1. School\0. Spring 2018\Elec 292\project1\elec291-292-AACHJY\Project2Files\C\Driving Code\EFM8_I2C_Nunchuck_and_motor.c:486: number1=speed/2;
04C1 C2D5      1646            clr     F0
04C3 75F002    1647            mov     b,#0x02
04C6 EA        1648            mov     a,r2
04C7 30E770    1649            jnb     acc.7,L021003?
04CA B2D5      1650            cpl     F0
04CC F4        1651            cpl     a
04CD 04        1652            inc     a
04CE           1653   L021003?:
04CE 84        1654            div     ab
04CF 30D5B0    1655            jnb     F0,L021004?
04D2 F4        1656            cpl     a
04D3 04        1657            inc     a
04D4           1658   L021004?:
04D4 F550      1659            mov     _number1,a
04D6           1660   ;        C:\Users\carso\Documents\1. School\0. Spring 2018\Elec 292\project1\elec291-292-AACHJY\Project2Files\C\Driving Code\EFM8_I2C_Nunchuck_and_motor.c:487: number3=speed;
04D6 8AD0      1661            mov     _number3,r2
04D8           1662   ;        C:\Users\carso\Documents\1. School\0. Spring 2018\Elec 292\project1\elec291-292-AACHJY\Project2Files\C\Driving Code\EFM8_I2C_Nunchuck_and_motor.c:488: number2=0;
04D8 751000    1663            mov     _number2,#0x00
04DB           1664   ;        C:\Users\carso\Documents\1. School\0. Spring 2018\Elec 292\project1\elec291-292-AACHJY\Project2Files\C\Driving Code\EFM8_I2C_Nunchuck_and_motor.c:489: number4=0;
04DB 759000    1665            mov     _number4,#0x00
04DE 22        1666            ret
04DF           1667   ;------------------------------------------------------------
04DF           1668   ;Allocation info for local variables in function 'turn_NEE'
04DF           1669   ;------------------------------------------------------------
04DF           1670   ;speed                     Allocated to registers r2 
04DF           1671   ;------------------------------------------------------------
04DF           1672   ;        C:\Users\carso\Documents\1. School\0. Spring 2018\Elec 292\project1\elec291-292-AACHJY\Project2Files\C\Driving Code\EFM8_I2C_Nunchuck_and_motor.c:492: void turn_NEE(char speed){
04DF           1673   ;        -----------------------------------------
04DF           1674   ;         function turn_NEE
04DF           1675   ;        -----------------------------------------
04DF           1676   _turn_NEE:
04DF AA82      1677            mov     r2,dpl
04E1           1678   ;        C:\Users\carso\Documents\1. School\0. Spring 2018\Elec 292\project1\elec291-292-AACHJY\Project2Files\C\Driving Code\EFM8_I2C_Nunchuck_and_motor.c:493: number1=speed;
04E1 8A50      1679            mov     _number1,r2
04E3           1680   ;        C:\Users\carso\Documents\1. School\0. Spring 2018\Elec 292\project1\elec291-292-AACHJY\Project2Files\C\Driving Code\EFM8_I2C_Nunchuck_and_motor.c:494: number3=speed/5;
04E3 C2D5      1681            clr     F0
04E5 75F005    1682            mov     b,#0x05
04E8 EA        1683            mov     a,r2
04E9 30E7F0    1684            jnb     acc.7,L022003?
04EC B2D5      1685            cpl     F0
04EE F4        1686            cpl     a
04EF 04        1687            inc     a
04F0           1688   L022003?:
04F0 84        1689            div     ab
04F1 30D530    1690            jnb     F0,L022004?
04F4 F4        1691            cpl     a
04F5 04        1692            inc     a
04F6           1693   L022004?:
04F6 F5D0      1694            mov     _number3,a
04F8           1695   ;        C:\Users\carso\Documents\1. School\0. Spring 2018\Elec 292\project1\elec291-292-AACHJY\Project2Files\C\Driving Code\EFM8_I2C_Nunchuck_and_motor.c:495: number2=0;
04F8 751000    1696            mov     _number2,#0x00
04FB           1697   ;        C:\Users\carso\Documents\1. School\0. Spring 2018\Elec 292\project1\elec291-292-AACHJY\Project2Files\C\Driving Code\EFM8_I2C_Nunchuck_and_motor.c:496: number4=0;
04FB 759000    1698            mov     _number4,#0x00
04FE 22        1699            ret
04FF           1700   ;------------------------------------------------------------
04FF           1701   ;Allocation info for local variables in function 'turn_NWW'
04FF           1702   ;------------------------------------------------------------
04FF           1703   ;speed                     Allocated to registers r2 
04FF           1704   ;------------------------------------------------------------
04FF           1705   ;        C:\Users\carso\Documents\1. School\0. Spring 2018\Elec 292\project1\elec291-292-AACHJY\Project2Files\C\Driving Code\EFM8_I2C_Nunchuck_and_motor.c:499: void turn_NWW(char speed){
04FF           1706   ;        -----------------------------------------
04FF           1707   ;         function turn_NWW
04FF           1708   ;        -----------------------------------------
04FF           1709   _turn_NWW:
04FF AA82      1710            mov     r2,dpl
0501           1711   ;        C:\Users\carso\Documents\1. School\0. Spring 2018\Elec 292\project1\elec291-292-AACHJY\Project2Files\C\Driving Code\EFM8_I2C_Nunchuck_and_motor.c:500: number1=speed/5;
0501 C2D5      1712            clr     F0
0503 75F005    1713            mov     b,#0x05
0506 EA        1714            mov     a,r2
0507 30E770    1715            jnb     acc.7,L023003?
050A B2D5      1716            cpl     F0
050C F4        1717            cpl     a
050D 04        1718            inc     a
050E           1719   L023003?:
050E 84        1720            div     ab
050F 30D5B0    1721            jnb     F0,L023004?
0512 F4        1722            cpl     a
0513 04        1723            inc     a
0514           1724   L023004?:
0514 F550      1725            mov     _number1,a
0516           1726   ;        C:\Users\carso\Documents\1. School\0. Spring 2018\Elec 292\project1\elec291-292-AACHJY\Project2Files\C\Driving Code\EFM8_I2C_Nunchuck_and_motor.c:501: number3=speed;
0516 8AD0      1727            mov     _number3,r2
0518           1728   ;        C:\Users\carso\Documents\1. School\0. Spring 2018\Elec 292\project1\elec291-292-AACHJY\Project2Files\C\Driving Code\EFM8_I2C_Nunchuck_and_motor.c:502: number2=0;
0518 751000    1729            mov     _number2,#0x00
051B           1730   ;        C:\Users\carso\Documents\1. School\0. Spring 2018\Elec 292\project1\elec291-292-AACHJY\Project2Files\C\Driving Code\EFM8_I2C_Nunchuck_and_motor.c:503: number4=0;
051B 759000    1731            mov     _number4,#0x00
051E 22        1732            ret
051F           1733   ;------------------------------------------------------------
051F           1734   ;Allocation info for local variables in function 'turn_SW'
051F           1735   ;------------------------------------------------------------
051F           1736   ;speed                     Allocated to registers r2 
051F           1737   ;------------------------------------------------------------
051F           1738   ;        C:\Users\carso\Documents\1. School\0. Spring 2018\Elec 292\project1\elec291-292-AACHJY\Project2Files\C\Driving Code\EFM8_I2C_Nunchuck_and_motor.c:506: void turn_SW(char speed){
051F           1739   ;        -----------------------------------------
051F           1740   ;         function turn_SW
051F           1741   ;        -----------------------------------------
051F           1742   _turn_SW:
051F AA82      1743            mov     r2,dpl
0521           1744   ;        C:\Users\carso\Documents\1. School\0. Spring 2018\Elec 292\project1\elec291-292-AACHJY\Project2Files\C\Driving Code\EFM8_I2C_Nunchuck_and_motor.c:508: number1=0;
0521 755000    1745            mov     _number1,#0x00
0524           1746   ;        C:\Users\carso\Documents\1. School\0. Spring 2018\Elec 292\project1\elec291-292-AACHJY\Project2Files\C\Driving Code\EFM8_I2C_Nunchuck_and_motor.c:509: number3=0;
0524 75D000    1747            mov     _number3,#0x00
0527           1748   ;        C:\Users\carso\Documents\1. School\0. Spring 2018\Elec 292\project1\elec291-292-AACHJY\Project2Files\C\Driving Code\EFM8_I2C_Nunchuck_and_motor.c:510: number2=speed/3;
0527 C2D5      1749            clr     F0
0529 75F003    1750            mov     b,#0x03
052C EA        1751            mov     a,r2
052D 30E7F0    1752            jnb     acc.7,L024003?
0530 B2D5      1753            cpl     F0
0532 F4        1754            cpl     a
0533 04        1755            inc     a
0534           1756   L024003?:
0534 84        1757            div     ab
0535 30D530    1758            jnb     F0,L024004?
0538 F4        1759            cpl     a
0539 04        1760            inc     a
053A           1761   L024004?:
053A F510      1762            mov     _number2,a
053C           1763   ;        C:\Users\carso\Documents\1. School\0. Spring 2018\Elec 292\project1\elec291-292-AACHJY\Project2Files\C\Driving Code\EFM8_I2C_Nunchuck_and_motor.c:511: number4=speed;
053C 8A90      1764            mov     _number4,r2
053E 22        1765            ret
053F           1766   ;------------------------------------------------------------
053F           1767   ;Allocation info for local variables in function 'turn_SE'
053F           1768   ;------------------------------------------------------------
053F           1769   ;speed                     Allocated to registers r2 
053F           1770   ;------------------------------------------------------------
053F           1771   ;        C:\Users\carso\Documents\1. School\0. Spring 2018\Elec 292\project1\elec291-292-AACHJY\Project2Files\C\Driving Code\EFM8_I2C_Nunchuck_and_motor.c:516: void turn_SE(char speed){
053F           1772   ;        -----------------------------------------
053F           1773   ;         function turn_SE
053F           1774   ;        -----------------------------------------
053F           1775   _turn_SE:
053F AA82      1776            mov     r2,dpl
0541           1777   ;        C:\Users\carso\Documents\1. School\0. Spring 2018\Elec 292\project1\elec291-292-AACHJY\Project2Files\C\Driving Code\EFM8_I2C_Nunchuck_and_motor.c:518: number1=0;
0541 755000    1778            mov     _number1,#0x00
0544           1779   ;        C:\Users\carso\Documents\1. School\0. Spring 2018\Elec 292\project1\elec291-292-AACHJY\Project2Files\C\Driving Code\EFM8_I2C_Nunchuck_and_motor.c:519: number3=0;
0544 75D000    1780            mov     _number3,#0x00
0547           1781   ;        C:\Users\carso\Documents\1. School\0. Spring 2018\Elec 292\project1\elec291-292-AACHJY\Project2Files\C\Driving Code\EFM8_I2C_Nunchuck_and_motor.c:520: number2=speed;
0547 8A10      1782            mov     _number2,r2
0549           1783   ;        C:\Users\carso\Documents\1. School\0. Spring 2018\Elec 292\project1\elec291-292-AACHJY\Project2Files\C\Driving Code\EFM8_I2C_Nunchuck_and_motor.c:521: number4=speed/3;
0549 C2D5      1784            clr     F0
054B 75F003    1785            mov     b,#0x03
054E EA        1786            mov     a,r2
054F 30E770    1787            jnb     acc.7,L025003?
0552 B2D5      1788            cpl     F0
0554 F4        1789            cpl     a
0555 04        1790            inc     a
0556           1791   L025003?:
0556 84        1792            div     ab
0557 30D5B0    1793            jnb     F0,L025004?
055A F4        1794            cpl     a
055B 04        1795            inc     a
055C           1796   L025004?:
055C F590      1797            mov     _number4,a
055E 22        1798            ret
055F           1799   ;------------------------------------------------------------
055F           1800   ;Allocation info for local variables in function 'turn_SSE'
055F           1801   ;------------------------------------------------------------
055F           1802   ;speed                     Allocated to registers r2 
055F           1803   ;------------------------------------------------------------
055F           1804   ;        C:\Users\carso\Documents\1. School\0. Spring 2018\Elec 292\project1\elec291-292-AACHJY\Project2Files\C\Driving Code\EFM8_I2C_Nunchuck_and_motor.c:524: void turn_SSE(char speed){
055F           1805   ;        -----------------------------------------
055F           1806   ;         function turn_SSE
055F           1807   ;        -----------------------------------------
055F           1808   _turn_SSE:
055F AA82      1809            mov     r2,dpl
0561           1810   ;        C:\Users\carso\Documents\1. School\0. Spring 2018\Elec 292\project1\elec291-292-AACHJY\Project2Files\C\Driving Code\EFM8_I2C_Nunchuck_and_motor.c:525: number1=0;
0561 755000    1811            mov     _number1,#0x00
0564           1812   ;        C:\Users\carso\Documents\1. School\0. Spring 2018\Elec 292\project1\elec291-292-AACHJY\Project2Files\C\Driving Code\EFM8_I2C_Nunchuck_and_motor.c:526: number3=0;
0564 75D000    1813            mov     _number3,#0x00
0567           1814   ;        C:\Users\carso\Documents\1. School\0. Spring 2018\Elec 292\project1\elec291-292-AACHJY\Project2Files\C\Driving Code\EFM8_I2C_Nunchuck_and_motor.c:527: number2=speed;
0567 8A10      1815            mov     _number2,r2
0569           1816   ;        C:\Users\carso\Documents\1. School\0. Spring 2018\Elec 292\project1\elec291-292-AACHJY\Project2Files\C\Driving Code\EFM8_I2C_Nunchuck_and_motor.c:528: number4=speed/2;
0569 C2D5      1817            clr     F0
056B 75F002    1818            mov     b,#0x02
056E EA        1819            mov     a,r2
056F 30E7F0    1820            jnb     acc.7,L026003?
0572 B2D5      1821            cpl     F0
0574 F4        1822            cpl     a
0575 04        1823            inc     a
0576           1824   L026003?:
0576 84        1825            div     ab
0577 30D530    1826            jnb     F0,L026004?
057A F4        1827            cpl     a
057B 04        1828            inc     a
057C           1829   L026004?:
057C F590      1830            mov     _number4,a
057E 22        1831            ret
057F           1832   ;------------------------------------------------------------
057F           1833   ;Allocation info for local variables in function 'turn_SSW'
057F           1834   ;------------------------------------------------------------
057F           1835   ;speed                     Allocated to registers r2 
057F           1836   ;------------------------------------------------------------
057F           1837   ;        C:\Users\carso\Documents\1. School\0. Spring 2018\Elec 292\project1\elec291-292-AACHJY\Project2Files\C\Driving Code\EFM8_I2C_Nunchuck_and_motor.c:531: void turn_SSW(char speed){
057F           1838   ;        -----------------------------------------
057F           1839   ;         function turn_SSW
057F           1840   ;        -----------------------------------------
057F           1841   _turn_SSW:
057F AA82      1842            mov     r2,dpl
0581           1843   ;        C:\Users\carso\Documents\1. School\0. Spring 2018\Elec 292\project1\elec291-292-AACHJY\Project2Files\C\Driving Code\EFM8_I2C_Nunchuck_and_motor.c:532: number1=0;
0581 755000    1844            mov     _number1,#0x00
0584           1845   ;        C:\Users\carso\Documents\1. School\0. Spring 2018\Elec 292\project1\elec291-292-AACHJY\Project2Files\C\Driving Code\EFM8_I2C_Nunchuck_and_motor.c:533: number3=0;
0584 75D000    1846            mov     _number3,#0x00
0587           1847   ;        C:\Users\carso\Documents\1. School\0. Spring 2018\Elec 292\project1\elec291-292-AACHJY\Project2Files\C\Driving Code\EFM8_I2C_Nunchuck_and_motor.c:534: number2=speed/2;
0587 C2D5      1848            clr     F0
0589 75F002    1849            mov     b,#0x02
058C EA        1850            mov     a,r2
058D 30E770    1851            jnb     acc.7,L027003?
0590 B2D5      1852            cpl     F0
0592 F4        1853            cpl     a
0593 04        1854            inc     a
0594           1855   L027003?:
0594 84        1856            div     ab
0595 30D5B0    1857            jnb     F0,L027004?
0598 F4        1858            cpl     a
0599 04        1859            inc     a
059A           1860   L027004?:
059A F510      1861            mov     _number2,a
059C           1862   ;        C:\Users\carso\Documents\1. School\0. Spring 2018\Elec 292\project1\elec291-292-AACHJY\Project2Files\C\Driving Code\EFM8_I2C_Nunchuck_and_motor.c:535: number4=speed;
059C 8A90      1863            mov     _number4,r2
059E 22        1864            ret
059F           1865   ;------------------------------------------------------------
059F           1866   ;Allocation info for local variables in function 'turn_SEE'
059F           1867   ;------------------------------------------------------------
059F           1868   ;speed                     Allocated to registers r2 
059F           1869   ;------------------------------------------------------------
059F           1870   ;        C:\Users\carso\Documents\1. School\0. Spring 2018\Elec 292\project1\elec291-292-AACHJY\Project2Files\C\Driving Code\EFM8_I2C_Nunchuck_and_motor.c:538: void turn_SEE(char speed){
059F           1871   ;        -----------------------------------------
059F           1872   ;         function turn_SEE
059F           1873   ;        -----------------------------------------
059F           1874   _turn_SEE:
059F AA82      1875            mov     r2,dpl
05A1           1876   ;        C:\Users\carso\Documents\1. School\0. Spring 2018\Elec 292\project1\elec291-292-AACHJY\Project2Files\C\Driving Code\EFM8_I2C_Nunchuck_and_motor.c:539: number1=0;
05A1 755000    1877            mov     _number1,#0x00
05A4           1878   ;        C:\Users\carso\Documents\1. School\0. Spring 2018\Elec 292\project1\elec291-292-AACHJY\Project2Files\C\Driving Code\EFM8_I2C_Nunchuck_and_motor.c:540: number3=0;
05A4 75D000    1879            mov     _number3,#0x00
05A7           1880   ;        C:\Users\carso\Documents\1. School\0. Spring 2018\Elec 292\project1\elec291-292-AACHJY\Project2Files\C\Driving Code\EFM8_I2C_Nunchuck_and_motor.c:541: number2=speed;
05A7 8A10      1881            mov     _number2,r2
05A9           1882   ;        C:\Users\carso\Documents\1. School\0. Spring 2018\Elec 292\project1\elec291-292-AACHJY\Project2Files\C\Driving Code\EFM8_I2C_Nunchuck_and_motor.c:542: number4=speed/5;
05A9 C2D5      1883            clr     F0
05AB 75F005    1884            mov     b,#0x05
05AE EA        1885            mov     a,r2
05AF 30E7F0    1886            jnb     acc.7,L028003?
05B2 B2D5      1887            cpl     F0
05B4 F4        1888            cpl     a
05B5 04        1889            inc     a
05B6           1890   L028003?:
05B6 84        1891            div     ab
05B7 30D530    1892            jnb     F0,L028004?
05BA F4        1893            cpl     a
05BB 04        1894            inc     a
05BC           1895   L028004?:
05BC F590      1896            mov     _number4,a
05BE 22        1897            ret
05BF           1898   ;------------------------------------------------------------
05BF           1899   ;Allocation info for local variables in function 'turn_SWW'
05BF           1900   ;------------------------------------------------------------
05BF           1901   ;speed                     Allocated to registers r2 
05BF           1902   ;------------------------------------------------------------
05BF           1903   ;        C:\Users\carso\Documents\1. School\0. Spring 2018\Elec 292\project1\elec291-292-AACHJY\Project2Files\C\Driving Code\EFM8_I2C_Nunchuck_and_motor.c:545: void turn_SWW(char speed){
05BF           1904   ;        -----------------------------------------
05BF           1905   ;         function turn_SWW
05BF           1906   ;        -----------------------------------------
05BF           1907   _turn_SWW:
05BF AA82      1908            mov     r2,dpl
05C1           1909   ;        C:\Users\carso\Documents\1. School\0. Spring 2018\Elec 292\project1\elec291-292-AACHJY\Project2Files\C\Driving Code\EFM8_I2C_Nunchuck_and_motor.c:546: number1=0;
05C1 755000    1910            mov     _number1,#0x00
05C4           1911   ;        C:\Users\carso\Documents\1. School\0. Spring 2018\Elec 292\project1\elec291-292-AACHJY\Project2Files\C\Driving Code\EFM8_I2C_Nunchuck_and_motor.c:547: number3=0;
05C4 75D000    1912            mov     _number3,#0x00
05C7           1913   ;        C:\Users\carso\Documents\1. School\0. Spring 2018\Elec 292\project1\elec291-292-AACHJY\Project2Files\C\Driving Code\EFM8_I2C_Nunchuck_and_motor.c:548: number2=speed/5;
05C7 C2D5      1914            clr     F0
05C9 75F005    1915            mov     b,#0x05
05CC EA        1916            mov     a,r2
05CD 30E770    1917            jnb     acc.7,L029003?
05D0 B2D5      1918            cpl     F0
05D2 F4        1919            cpl     a
05D3 04        1920            inc     a
05D4           1921   L029003?:
05D4 84        1922            div     ab
05D5 30D5B0    1923            jnb     F0,L029004?
05D8 F4        1924            cpl     a
05D9 04        1925            inc     a
05DA           1926   L029004?:
05DA F510      1927            mov     _number2,a
05DC           1928   ;        C:\Users\carso\Documents\1. School\0. Spring 2018\Elec 292\project1\elec291-292-AACHJY\Project2Files\C\Driving Code\EFM8_I2C_Nunchuck_and_motor.c:549: number4=speed;
05DC 8A90      1929            mov     _number4,r2
05DE 22        1930            ret
05DF           1931   ;------------------------------------------------------------
05DF           1932   ;Allocation info for local variables in function 'stop'
05DF           1933   ;------------------------------------------------------------
05DF           1934   ;------------------------------------------------------------
05DF           1935   ;        C:\Users\carso\Documents\1. School\0. Spring 2018\Elec 292\project1\elec291-292-AACHJY\Project2Files\C\Driving Code\EFM8_I2C_Nunchuck_and_motor.c:555: void stop(){
05DF           1936   ;        -----------------------------------------
05DF           1937   ;         function stop
05DF           1938   ;        -----------------------------------------
05DF           1939   _stop:
05DF           1940   ;        C:\Users\carso\Documents\1. School\0. Spring 2018\Elec 292\project1\elec291-292-AACHJY\Project2Files\C\Driving Code\EFM8_I2C_Nunchuck_and_motor.c:557: number1=0;
05DF 755000    1941            mov     _number1,#0x00
05E2           1942   ;        C:\Users\carso\Documents\1. School\0. Spring 2018\Elec 292\project1\elec291-292-AACHJY\Project2Files\C\Driving Code\EFM8_I2C_Nunchuck_and_motor.c:558: number2=0;
05E2 751000    1943            mov     _number2,#0x00
05E5           1944   ;        C:\Users\carso\Documents\1. School\0. Spring 2018\Elec 292\project1\elec291-292-AACHJY\Project2Files\C\Driving Code\EFM8_I2C_Nunchuck_and_motor.c:559: number3=0;
05E5 75D000    1945            mov     _number3,#0x00
05E8           1946   ;        C:\Users\carso\Documents\1. School\0. Spring 2018\Elec 292\project1\elec291-292-AACHJY\Project2Files\C\Driving Code\EFM8_I2C_Nunchuck_and_motor.c:560: number4=0;
05E8 759000    1947            mov     _number4,#0x00
05EB 22        1948            ret
05EC           1949   ;------------------------------------------------------------
05EC           1950   ;Allocation info for local variables in function 'get_speed'
05EC           1951   ;------------------------------------------------------------
05EC           1952   ;x_ax                      Allocated with name '_get_speed_PARM_2'
05EC           1953   ;y_ax                      Allocated to registers r2 r3 
05EC           1954   ;spd                       Allocated to registers r6 r7 
05EC           1955   ;------------------------------------------------------------
05EC           1956   ;        C:\Users\carso\Documents\1. School\0. Spring 2018\Elec 292\project1\elec291-292-AACHJY\Project2Files\C\Driving Code\EFM8_I2C_Nunchuck_and_motor.c:563: int get_speed(int y_ax, int x_ax){
05EC           1957   ;        -----------------------------------------
05EC           1958   ;         function get_speed
05EC           1959   ;        -----------------------------------------
05EC           1960   _get_speed:
05EC           1961   ;        C:\Users\carso\Documents\1. School\0. Spring 2018\Elec 292\project1\elec291-292-AACHJY\Project2Files\C\Driving Code\EFM8_I2C_Nunchuck_and_motor.c:565: y_ax=abs(y_ax);
05EC 120100    1962            lcall   _abs
05EF AA82      1963            mov     r2,dpl
05F1 AB83      1964            mov     r3,dph
05F3           1965   ;        C:\Users\carso\Documents\1. School\0. Spring 2018\Elec 292\project1\elec291-292-AACHJY\Project2Files\C\Driving Code\EFM8_I2C_Nunchuck_and_motor.c:566: x_ax=abs(x_ax);
05F3 851082    1966            mov     dpl,_get_speed_PARM_2
05F6 851183    1967            mov     dph,(_get_speed_PARM_2 + 1)
05F9 C002      1968            push    ar2
05FB C003      1969            push    ar3
05FD 120100    1970            lcall   _abs
0600 AC82      1971            mov     r4,dpl
0602 AD83      1972            mov     r5,dph
0604 D003      1973            pop     ar3
0606 D002      1974            pop     ar2
0608           1975   ;        C:\Users\carso\Documents\1. School\0. Spring 2018\Elec 292\project1\elec291-292-AACHJY\Project2Files\C\Driving Code\EFM8_I2C_Nunchuck_and_motor.c:568: if(y_ax>x_ax){
0608 C3        1976            clr     c
0609 EC        1977            mov     a,r4
060A 9A        1978            subb    a,r2
060B ED        1979            mov     a,r5
060C 6480      1980            xrl     a,#0x80
060E 8BF0      1981            mov     b,r3
0610 63F080    1982            xrl     b,#0x80
0613 95F0      1983            subb    a,b
0615 5001      1984            jnc     L031004?
0617           1985   ;        C:\Users\carso\Documents\1. School\0. Spring 2018\Elec 292\project1\elec291-292-AACHJY\Project2Files\C\Driving Code\EFM8_I2C_Nunchuck_and_motor.c:569: spd=y_ax;
0617 8A06      1986            mov     ar6,r2
0619 8B07      1987            mov     ar7,r3
061B           1988   ;        C:\Users\carso\Documents\1. School\0. Spring 2018\Elec 292\project1\elec291-292-AACHJY\Project2Files\C\Driving Code\EFM8_I2C_Nunchuck_and_motor.c:570: if(y_ax>85)
061B C3        1989            clr     c
061C 7455      1990            mov     a,#0x55
061E 9A        1991            subb    a,r2
061F E4        1992            clr     a
0620 6480      1993            xrl     a,#0x80
0622 8BF0      1994            mov     b,r3
0624 63F080    1995            xrl     b,#0x80
0627 95F0      1996            subb    a,b
0629 5001      1997            jnc     L031005?
062B           1998   ;        C:\Users\carso\Documents\1. School\0. Spring 2018\Elec 292\project1\elec291-292-AACHJY\Project2Files\C\Driving Code\EFM8_I2C_Nunchuck_and_motor.c:571: spd=100;
062B 7E64      1999            mov     r6,#0x64
062D 7F00      2000            mov     r7,#0x00
062F 8001      2001            sjmp    L031005?
0631           2002   L031004?:
0631           2003   ;        C:\Users\carso\Documents\1. School\0. Spring 2018\Elec 292\project1\elec291-292-AACHJY\Project2Files\C\Driving Code\EFM8_I2C_Nunchuck_and_motor.c:573: else spd=x_ax;
0631 8C06      2004            mov     ar6,r4
0633 8D07      2005            mov     ar7,r5
0635           2006   L031005?:
0635           2007   ;        C:\Users\carso\Documents\1. School\0. Spring 2018\Elec 292\project1\elec291-292-AACHJY\Project2Files\C\Driving Code\EFM8_I2C_Nunchuck_and_motor.c:575: return spd;
0635 8E82      2008            mov     dpl,r6
0637 8F83      2009            mov     dph,r7
0639 22        2010            ret
063A           2011   ;------------------------------------------------------------
063A           2012   ;Allocation info for local variables in function 'get_direction'
063A           2013   ;------------------------------------------------------------
063A           2014   ;y_axis                    Allocated with name '_get_direction_PARM_2'
063A           2015   ;x_axis                    Allocated to registers r2 r3 
063A           2016   ;direction                 Allocated to registers r4 
063A           2017   ;------------------------------------------------------------
063A           2018   ;        C:\Users\carso\Documents\1. School\0. Spring 2018\Elec 292\project1\elec291-292-AACHJY\Project2Files\C\Driving Code\EFM8_I2C_Nunchuck_and_motor.c:578: char get_direction(int x_axis, int y_axis){
063A           2019   ;        -----------------------------------------
063A           2020   ;         function get_direction
063A           2021   ;        -----------------------------------------
063A           2022   _get_direction:
063A AA82      2023            mov     r2,dpl
063C AB83      2024            mov     r3,dph
063E           2025   ;        C:\Users\carso\Documents\1. School\0. Spring 2018\Elec 292\project1\elec291-292-AACHJY\Project2Files\C\Driving Code\EFM8_I2C_Nunchuck_and_motor.c:580: char direction=north;
063E 7C61      2026            mov     r4,#0x61
0640           2027   ;        C:\Users\carso\Documents\1. School\0. Spring 2018\Elec 292\project1\elec291-292-AACHJY\Project2Files\C\Driving Code\EFM8_I2C_Nunchuck_and_motor.c:613: if(y_axis>5){
0640 C3        2028            clr     c
0641 7405      2029            mov     a,#0x05
0643 95C0      2030            subb    a,_get_direction_PARM_2
0645 E4        2031            clr     a
0646 6480      2032            xrl     a,#0x80
0648 85C1F0    2033            mov     b,(_get_direction_PARM_2 + 1)
064B 63F080    2034            xrl     b,#0x80
064E 95F0      2035            subb    a,b
0650 E4        2036            clr     a
0651 33        2037            rlc     a
0652 FD        2038            mov     r5,a
0653 7001      2039            jnz     L032130?
0655 020100    2040            ljmp    L032084?
0658           2041   L032130?:
0658           2042   ;        C:\Users\carso\Documents\1. School\0. Spring 2018\Elec 292\project1\elec291-292-AACHJY\Project2Files\C\Driving Code\EFM8_I2C_Nunchuck_and_motor.c:615: if ((x_axis<10)&&(x_axis>-10)){
0658 C3        2043            clr     c
0659 EA        2044            mov     a,r2
065A 940A      2045            subb    a,#0x0A
065C EB        2046            mov     a,r3
065D 6480      2047            xrl     a,#0x80
065F 9480      2048            subb    a,#0x80
0661 5001      2049            jnc     L032038?
0663 C3        2050            clr     c
0664 74F6      2051            mov     a,#0xF6
0666 9A        2052            subb    a,r2
0667 747F      2053            mov     a,#(0xFF ^ 0x80)
0669 8BF0      2054            mov     b,r3
066B 63F080    2055            xrl     b,#0x80
066E 95F0      2056            subb    a,b
0670 5001      2057            jnc     L032038?
0672           2058   ;        C:\Users\carso\Documents\1. School\0. Spring 2018\Elec 292\project1\elec291-292-AACHJY\Project2Files\C\Driving Code\EFM8_I2C_Nunchuck_and_motor.c:618: if(y_axis>5&&y_axis>-5){
0672 ED        2059            mov     a,r5
0673 6001      2060            jz      L032002?
0675 C3        2061            clr     c
0676 74FB      2062            mov     a,#0xFB
0678 95C0      2063            subb    a,_get_direction_PARM_2
067A 747F      2064            mov     a,#(0xFF ^ 0x80)
067C 85C1F0    2065            mov     b,(_get_direction_PARM_2 + 1)
067F 63F080    2066            xrl     b,#0x80
0682 95F0      2067            subb    a,b
0684 5001      2068            jnc     L032002?
0686           2069   ;        C:\Users\carso\Documents\1. School\0. Spring 2018\Elec 292\project1\elec291-292-AACHJY\Project2Files\C\Driving Code\EFM8_I2C_Nunchuck_and_motor.c:619: stop();
0686 C004      2070            push    ar4
0688 120100    2071            lcall   _stop
068B D004      2072            pop     ar4
068D 020100    2073            ljmp    L032085?
0690           2074   L032002?:
0690           2075   ;        C:\Users\carso\Documents\1. School\0. Spring 2018\Elec 292\project1\elec291-292-AACHJY\Project2Files\C\Driving Code\EFM8_I2C_Nunchuck_and_motor.c:621: else direction=north;
0690 7C61      2076            mov     r4,#0x61
0692 020100    2077            ljmp    L032085?
0695           2078   L032038?:
0695           2079   ;        C:\Users\carso\Documents\1. School\0. Spring 2018\Elec 292\project1\elec291-292-AACHJY\Project2Files\C\Driving Code\EFM8_I2C_Nunchuck_and_motor.c:625: else if(x_axis>10&&x_axis<=30){
0695 C3        2080            clr     c
0696 740A      2081            mov     a,#0x0A
0698 9A        2082            subb    a,r2
0699 E4        2083            clr     a
069A 6480      2084            xrl     a,#0x80
069C 8BF0      2085            mov     b,r3
069E 63F080    2086            xrl     b,#0x80
06A1 95F0      2087            subb    a,b
06A3 5001      2088            jnc     L032034?
06A5 C3        2089            clr     c
06A6 741E      2090            mov     a,#0x1E
06A8 9A        2091            subb    a,r2
06A9 E4        2092            clr     a
06AA 6480      2093            xrl     a,#0x80
06AC 8BF0      2094            mov     b,r3
06AE 63F080    2095            xrl     b,#0x80
06B1 95F0      2096            subb    a,b
06B3 4001      2097            jc      L032034?
06B5           2098   ;        C:\Users\carso\Documents\1. School\0. Spring 2018\Elec 292\project1\elec291-292-AACHJY\Project2Files\C\Driving Code\EFM8_I2C_Nunchuck_and_motor.c:626: direction=NNE;
06B5 7C63      2099            mov     r4,#0x63
06B7 020100    2100            ljmp    L032085?
06BA           2101   L032034?:
06BA           2102   ;        C:\Users\carso\Documents\1. School\0. Spring 2018\Elec 292\project1\elec291-292-AACHJY\Project2Files\C\Driving Code\EFM8_I2C_Nunchuck_and_motor.c:628: else if(x_axis>30&&x_axis<=50){
06BA C3        2103            clr     c
06BB 741E      2104            mov     a,#0x1E
06BD 9A        2105            subb    a,r2
06BE E4        2106            clr     a
06BF 6480      2107            xrl     a,#0x80
06C1 8BF0      2108            mov     b,r3
06C3 63F080    2109            xrl     b,#0x80
06C6 95F0      2110            subb    a,b
06C8 5001      2111            jnc     L032030?
06CA C3        2112            clr     c
06CB 7432      2113            mov     a,#0x32
06CD 9A        2114            subb    a,r2
06CE E4        2115            clr     a
06CF 6480      2116            xrl     a,#0x80
06D1 8BF0      2117            mov     b,r3
06D3 63F080    2118            xrl     b,#0x80
06D6 95F0      2119            subb    a,b
06D8 4001      2120            jc      L032030?
06DA           2121   ;        C:\Users\carso\Documents\1. School\0. Spring 2018\Elec 292\project1\elec291-292-AACHJY\Project2Files\C\Driving Code\EFM8_I2C_Nunchuck_and_motor.c:629: direction=NE;
06DA 7C65      2122            mov     r4,#0x65
06DC 020100    2123            ljmp    L032085?
06DF           2124   L032030?:
06DF           2125   ;        C:\Users\carso\Documents\1. School\0. Spring 2018\Elec 292\project1\elec291-292-AACHJY\Project2Files\C\Driving Code\EFM8_I2C_Nunchuck_and_motor.c:631: else if(x_axis>50&&x_axis<=70){
06DF C3        2126            clr     c
06E0 7432      2127            mov     a,#0x32
06E2 9A        2128            subb    a,r2
06E3 E4        2129            clr     a
06E4 6480      2130            xrl     a,#0x80
06E6 8BF0      2131            mov     b,r3
06E8 63F080    2132            xrl     b,#0x80
06EB 95F0      2133            subb    a,b
06ED 5001      2134            jnc     L032026?
06EF C3        2135            clr     c
06F0 7446      2136            mov     a,#0x46
06F2 9A        2137            subb    a,r2
06F3 E4        2138            clr     a
06F4 6480      2139            xrl     a,#0x80
06F6 8BF0      2140            mov     b,r3
06F8 63F080    2141            xrl     b,#0x80
06FB 95F0      2142            subb    a,b
06FD 4001      2143            jc      L032026?
06FF           2144   ;        C:\Users\carso\Documents\1. School\0. Spring 2018\Elec 292\project1\elec291-292-AACHJY\Project2Files\C\Driving Code\EFM8_I2C_Nunchuck_and_motor.c:632: direction=NEE;
06FF 7C67      2145            mov     r4,#0x67
0701 020100    2146            ljmp    L032085?
0704           2147   L032026?:
0704           2148   ;        C:\Users\carso\Documents\1. School\0. Spring 2018\Elec 292\project1\elec291-292-AACHJY\Project2Files\C\Driving Code\EFM8_I2C_Nunchuck_and_motor.c:634: else if(x_axis>70&&x_axis<=100){
0704 C3        2149            clr     c
0705 7446      2150            mov     a,#0x46
0707 9A        2151            subb    a,r2
0708 E4        2152            clr     a
0709 6480      2153            xrl     a,#0x80
070B 8BF0      2154            mov     b,r3
070D 63F080    2155            xrl     b,#0x80
0710 95F0      2156            subb    a,b
0712 5001      2157            jnc     L032022?
0714 C3        2158            clr     c
0715 7464      2159            mov     a,#0x64
0717 9A        2160            subb    a,r2
0718 E4        2161            clr     a
0719 6480      2162            xrl     a,#0x80
071B 8BF0      2163            mov     b,r3
071D 63F080    2164            xrl     b,#0x80
0720 95F0      2165            subb    a,b
0722 4001      2166            jc      L032022?
0724           2167   ;        C:\Users\carso\Documents\1. School\0. Spring 2018\Elec 292\project1\elec291-292-AACHJY\Project2Files\C\Driving Code\EFM8_I2C_Nunchuck_and_motor.c:635: direction=east;
0724 7C69      2168            mov     r4,#0x69
0726 020100    2169            ljmp    L032085?
0729           2170   L032022?:
0729           2171   ;        C:\Users\carso\Documents\1. School\0. Spring 2018\Elec 292\project1\elec291-292-AACHJY\Project2Files\C\Driving Code\EFM8_I2C_Nunchuck_and_motor.c:638: else if(x_axis<-10&&x_axis>=-30){
0729 C3        2172            clr     c
072A EA        2173            mov     a,r2
072B 94F6      2174            subb    a,#0xF6
072D EB        2175            mov     a,r3
072E 6480      2176            xrl     a,#0x80
0730 947F      2177            subb    a,#0x7f
0732 5001      2178            jnc     L032018?
0734 C3        2179            clr     c
0735 EA        2180            mov     a,r2
0736 94E2      2181            subb    a,#0xE2
0738 EB        2182            mov     a,r3
0739 6480      2183            xrl     a,#0x80
073B 947F      2184            subb    a,#0x7f
073D 4001      2185            jc      L032018?
073F           2186   ;        C:\Users\carso\Documents\1. School\0. Spring 2018\Elec 292\project1\elec291-292-AACHJY\Project2Files\C\Driving Code\EFM8_I2C_Nunchuck_and_motor.c:639: direction=NNW;
073F 7C64      2187            mov     r4,#0x64
0741 020100    2188            ljmp    L032085?
0744           2189   L032018?:
0744           2190   ;        C:\Users\carso\Documents\1. School\0. Spring 2018\Elec 292\project1\elec291-292-AACHJY\Project2Files\C\Driving Code\EFM8_I2C_Nunchuck_and_motor.c:641: else if(x_axis<-30&&x_axis>=-50){
0744 C3        2191            clr     c
0745 EA        2192            mov     a,r2
0746 94E2      2193            subb    a,#0xE2
0748 EB        2194            mov     a,r3
0749 6480      2195            xrl     a,#0x80
074B 947F      2196            subb    a,#0x7f
074D 5001      2197            jnc     L032014?
074F C3        2198            clr     c
0750 EA        2199            mov     a,r2
0751 94CE      2200            subb    a,#0xCE
0753 EB        2201            mov     a,r3
0754 6480      2202            xrl     a,#0x80
0756 947F      2203            subb    a,#0x7f
0758 4001      2204            jc      L032014?
075A           2205   ;        C:\Users\carso\Documents\1. School\0. Spring 2018\Elec 292\project1\elec291-292-AACHJY\Project2Files\C\Driving Code\EFM8_I2C_Nunchuck_and_motor.c:642: direction=NW;
075A 7C66      2206            mov     r4,#0x66
075C 020100    2207            ljmp    L032085?
075F           2208   L032014?:
075F           2209   ;        C:\Users\carso\Documents\1. School\0. Spring 2018\Elec 292\project1\elec291-292-AACHJY\Project2Files\C\Driving Code\EFM8_I2C_Nunchuck_and_motor.c:644: else if(x_axis<-50&&x_axis>=-70){
075F C3        2210            clr     c
0760 EA        2211            mov     a,r2
0761 94CE      2212            subb    a,#0xCE
0763 EB        2213            mov     a,r3
0764 6480      2214            xrl     a,#0x80
0766 947F      2215            subb    a,#0x7f
0768 5001      2216            jnc     L032010?
076A C3        2217            clr     c
076B EA        2218            mov     a,r2
076C 94BA      2219            subb    a,#0xBA
076E EB        2220            mov     a,r3
076F 6480      2221            xrl     a,#0x80
0771 947F      2222            subb    a,#0x7f
0773 4001      2223            jc      L032010?
0775           2224   ;        C:\Users\carso\Documents\1. School\0. Spring 2018\Elec 292\project1\elec291-292-AACHJY\Project2Files\C\Driving Code\EFM8_I2C_Nunchuck_and_motor.c:645: direction=NWW;
0775 7C68      2225            mov     r4,#0x68
0777 020100    2226            ljmp    L032085?
077A           2227   L032010?:
077A           2228   ;        C:\Users\carso\Documents\1. School\0. Spring 2018\Elec 292\project1\elec291-292-AACHJY\Project2Files\C\Driving Code\EFM8_I2C_Nunchuck_and_motor.c:647: else if(x_axis<-70&&x_axis>=-110){
077A C3        2229            clr     c
077B EA        2230            mov     a,r2
077C 94BA      2231            subb    a,#0xBA
077E EB        2232            mov     a,r3
077F 6480      2233            xrl     a,#0x80
0781 947F      2234            subb    a,#0x7f
0783 5001      2235            jnc     L032006?
0785 C3        2236            clr     c
0786 EA        2237            mov     a,r2
0787 9492      2238            subb    a,#0x92
0789 EB        2239            mov     a,r3
078A 6480      2240            xrl     a,#0x80
078C 947F      2241            subb    a,#0x7f
078E 4001      2242            jc      L032006?
0790           2243   ;        C:\Users\carso\Documents\1. School\0. Spring 2018\Elec 292\project1\elec291-292-AACHJY\Project2Files\C\Driving Code\EFM8_I2C_Nunchuck_and_motor.c:648: direction=west;
0790 7C6A      2244            mov     r4,#0x6A
0792 020100    2245            ljmp    L032085?
0795           2246   L032006?:
0795           2247   ;        C:\Users\carso\Documents\1. School\0. Spring 2018\Elec 292\project1\elec291-292-AACHJY\Project2Files\C\Driving Code\EFM8_I2C_Nunchuck_and_motor.c:651: direction=north;
0795 7C61      2248            mov     r4,#0x61
0797 020100    2249            ljmp    L032085?
079A           2250   L032084?:
079A           2251   ;        C:\Users\carso\Documents\1. School\0. Spring 2018\Elec 292\project1\elec291-292-AACHJY\Project2Files\C\Driving Code\EFM8_I2C_Nunchuck_and_motor.c:655: else if (y_axis<-5){
079A C3        2252            clr     c
079B E5C0      2253            mov     a,_get_direction_PARM_2
079D 94FB      2254            subb    a,#0xFB
079F E5C1      2255            mov     a,(_get_direction_PARM_2 + 1)
07A1 6480      2256            xrl     a,#0x80
07A3 947F      2257            subb    a,#0x7f
07A5 4001      2258            jc      L032151?
07A7 020100    2259            ljmp    L032085?
07AA           2260   L032151?:
07AA           2261   ;        C:\Users\carso\Documents\1. School\0. Spring 2018\Elec 292\project1\elec291-292-AACHJY\Project2Files\C\Driving Code\EFM8_I2C_Nunchuck_and_motor.c:657: if ((x_axis<10)&&(x_axis>-10)){
07AA C3        2262            clr     c
07AB EA        2263            mov     a,r2
07AC 940A      2264            subb    a,#0x0A
07AE EB        2265            mov     a,r3
07AF 6480      2266            xrl     a,#0x80
07B1 9480      2267            subb    a,#0x80
07B3 5001      2268            jnc     L032078?
07B5 C3        2269            clr     c
07B6 74F6      2270            mov     a,#0xF6
07B8 9A        2271            subb    a,r2
07B9 747F      2272            mov     a,#(0xFF ^ 0x80)
07BB 8BF0      2273            mov     b,r3
07BD 63F080    2274            xrl     b,#0x80
07C0 95F0      2275            subb    a,b
07C2 5001      2276            jnc     L032078?
07C4           2277   ;        C:\Users\carso\Documents\1. School\0. Spring 2018\Elec 292\project1\elec291-292-AACHJY\Project2Files\C\Driving Code\EFM8_I2C_Nunchuck_and_motor.c:660: if(y_axis>5&&y_axis>-5){
07C4 ED        2278            mov     a,r5
07C5 6001      2279            jz      L032042?
07C7 C3        2280            clr     c
07C8 74FB      2281            mov     a,#0xFB
07CA 95C0      2282            subb    a,_get_direction_PARM_2
07CC 747F      2283            mov     a,#(0xFF ^ 0x80)
07CE 85C1F0    2284            mov     b,(_get_direction_PARM_2 + 1)
07D1 63F080    2285            xrl     b,#0x80
07D4 95F0      2286            subb    a,b
07D6 5001      2287            jnc     L032042?
07D8           2288   ;        C:\Users\carso\Documents\1. School\0. Spring 2018\Elec 292\project1\elec291-292-AACHJY\Project2Files\C\Driving Code\EFM8_I2C_Nunchuck_and_motor.c:661: stop();
07D8 C004      2289            push    ar4
07DA 120100    2290            lcall   _stop
07DD D004      2291            pop     ar4
07DF 020100    2292            ljmp    L032085?
07E2           2293   L032042?:
07E2           2294   ;        C:\Users\carso\Documents\1. School\0. Spring 2018\Elec 292\project1\elec291-292-AACHJY\Project2Files\C\Driving Code\EFM8_I2C_Nunchuck_and_motor.c:663: else direction=south;
07E2 7C62      2295            mov     r4,#0x62
07E4 020100    2296            ljmp    L032085?
07E7           2297   L032078?:
07E7           2298   ;        C:\Users\carso\Documents\1. School\0. Spring 2018\Elec 292\project1\elec291-292-AACHJY\Project2Files\C\Driving Code\EFM8_I2C_Nunchuck_and_motor.c:667: else if(x_axis>10&&x_axis<=30){
07E7 C3        2299            clr     c
07E8 740A      2300            mov     a,#0x0A
07EA 9A        2301            subb    a,r2
07EB E4        2302            clr     a
07EC 6480      2303            xrl     a,#0x80
07EE 8BF0      2304            mov     b,r3
07F0 63F080    2305            xrl     b,#0x80
07F3 95F0      2306            subb    a,b
07F5 5001      2307            jnc     L032074?
07F7 C3        2308            clr     c
07F8 741E      2309            mov     a,#0x1E
07FA 9A        2310            subb    a,r2
07FB E4        2311            clr     a
07FC 6480      2312            xrl     a,#0x80
07FE 8BF0      2313            mov     b,r3
0800 63F080    2314            xrl     b,#0x80
0803 95F0      2315            subb    a,b
0805 4001      2316            jc      L032074?
0807           2317   ;        C:\Users\carso\Documents\1. School\0. Spring 2018\Elec 292\project1\elec291-292-AACHJY\Project2Files\C\Driving Code\EFM8_I2C_Nunchuck_and_motor.c:668: direction=SSE;
0807 7C6B      2318            mov     r4,#0x6B
0809 020100    2319            ljmp    L032085?
080C           2320   L032074?:
080C           2321   ;        C:\Users\carso\Documents\1. School\0. Spring 2018\Elec 292\project1\elec291-292-AACHJY\Project2Files\C\Driving Code\EFM8_I2C_Nunchuck_and_motor.c:670: else if(x_axis>30&&x_axis<=50){
080C C3        2322            clr     c
080D 741E      2323            mov     a,#0x1E
080F 9A        2324            subb    a,r2
0810 E4        2325            clr     a
0811 6480      2326            xrl     a,#0x80
0813 8BF0      2327            mov     b,r3
0815 63F080    2328            xrl     b,#0x80
0818 95F0      2329            subb    a,b
081A 5001      2330            jnc     L032070?
081C C3        2331            clr     c
081D 7432      2332            mov     a,#0x32
081F 9A        2333            subb    a,r2
0820 E4        2334            clr     a
0821 6480      2335            xrl     a,#0x80
0823 8BF0      2336            mov     b,r3
0825 63F080    2337            xrl     b,#0x80
0828 95F0      2338            subb    a,b
082A 4001      2339            jc      L032070?
082C           2340   ;        C:\Users\carso\Documents\1. School\0. Spring 2018\Elec 292\project1\elec291-292-AACHJY\Project2Files\C\Driving Code\EFM8_I2C_Nunchuck_and_motor.c:671: direction=SE;
082C 7C6D      2341            mov     r4,#0x6D
082E 020100    2342            ljmp    L032085?
0831           2343   L032070?:
0831           2344   ;        C:\Users\carso\Documents\1. School\0. Spring 2018\Elec 292\project1\elec291-292-AACHJY\Project2Files\C\Driving Code\EFM8_I2C_Nunchuck_and_motor.c:673: else if(x_axis>50&&x_axis<=70){
0831 C3        2345            clr     c
0832 7432      2346            mov     a,#0x32
0834 9A        2347            subb    a,r2
0835 E4        2348            clr     a
0836 6480      2349            xrl     a,#0x80
0838 8BF0      2350            mov     b,r3
083A 63F080    2351            xrl     b,#0x80
083D 95F0      2352            subb    a,b
083F 5001      2353            jnc     L032066?
0841 C3        2354            clr     c
0842 7446      2355            mov     a,#0x46
0844 9A        2356            subb    a,r2
0845 E4        2357            clr     a
0846 6480      2358            xrl     a,#0x80
0848 8BF0      2359            mov     b,r3
084A 63F080    2360            xrl     b,#0x80
084D 95F0      2361            subb    a,b
084F 4001      2362            jc      L032066?
0851           2363   ;        C:\Users\carso\Documents\1. School\0. Spring 2018\Elec 292\project1\elec291-292-AACHJY\Project2Files\C\Driving Code\EFM8_I2C_Nunchuck_and_motor.c:674: direction=SEE;
0851 7C6F      2364            mov     r4,#0x6F
0853 020100    2365            ljmp    L032085?
0856           2366   L032066?:
0856           2367   ;        C:\Users\carso\Documents\1. School\0. Spring 2018\Elec 292\project1\elec291-292-AACHJY\Project2Files\C\Driving Code\EFM8_I2C_Nunchuck_and_motor.c:676: else if(x_axis>70&&x_axis<=100){
0856 C3        2368            clr     c
0857 7446      2369            mov     a,#0x46
0859 9A        2370            subb    a,r2
085A E4        2371            clr     a
085B 6480      2372            xrl     a,#0x80
085D 8BF0      2373            mov     b,r3
085F 63F080    2374            xrl     b,#0x80
0862 95F0      2375            subb    a,b
0864 5001      2376            jnc     L032062?
0866 C3        2377            clr     c
0867 7464      2378            mov     a,#0x64
0869 9A        2379            subb    a,r2
086A E4        2380            clr     a
086B 6480      2381            xrl     a,#0x80
086D 8BF0      2382            mov     b,r3
086F 63F080    2383            xrl     b,#0x80
0872 95F0      2384            subb    a,b
0874 4001      2385            jc      L032062?
0876           2386   ;        C:\Users\carso\Documents\1. School\0. Spring 2018\Elec 292\project1\elec291-292-AACHJY\Project2Files\C\Driving Code\EFM8_I2C_Nunchuck_and_motor.c:677: direction=east;
0876 7C69      2387            mov     r4,#0x69
0878 8001      2388            sjmp    L032085?
087A           2389   L032062?:
087A           2390   ;        C:\Users\carso\Documents\1. School\0. Spring 2018\Elec 292\project1\elec291-292-AACHJY\Project2Files\C\Driving Code\EFM8_I2C_Nunchuck_and_motor.c:680: else if(x_axis<-10&&x_axis>=-30){
087A C3        2391            clr     c
087B EA        2392            mov     a,r2
087C 94F6      2393            subb    a,#0xF6
087E EB        2394            mov     a,r3
087F 6480      2395            xrl     a,#0x80
0881 947F      2396            subb    a,#0x7f
0883 5001      2397            jnc     L032058?
0885 C3        2398            clr     c
0886 EA        2399            mov     a,r2
0887 94E2      2400            subb    a,#0xE2
0889 EB        2401            mov     a,r3
088A 6480      2402            xrl     a,#0x80
088C 947F      2403            subb    a,#0x7f
088E 4001      2404            jc      L032058?
0890           2405   ;        C:\Users\carso\Documents\1. School\0. Spring 2018\Elec 292\project1\elec291-292-AACHJY\Project2Files\C\Driving Code\EFM8_I2C_Nunchuck_and_motor.c:681: direction=SSW;
0890 7C6C      2406            mov     r4,#0x6C
0892 8001      2407            sjmp    L032085?
0894           2408   L032058?:
0894           2409   ;        C:\Users\carso\Documents\1. School\0. Spring 2018\Elec 292\project1\elec291-292-AACHJY\Project2Files\C\Driving Code\EFM8_I2C_Nunchuck_and_motor.c:683: else if(x_axis<-30&&x_axis>=-50){
0894 C3        2410            clr     c
0895 EA        2411            mov     a,r2
0896 94E2      2412            subb    a,#0xE2
0898 EB        2413            mov     a,r3
0899 6480      2414            xrl     a,#0x80
089B 947F      2415            subb    a,#0x7f
089D 5001      2416            jnc     L032054?
089F C3        2417            clr     c
08A0 EA        2418            mov     a,r2
08A1 94CE      2419            subb    a,#0xCE
08A3 EB        2420            mov     a,r3
08A4 6480      2421            xrl     a,#0x80
08A6 947F      2422            subb    a,#0x7f
08A8 4001      2423            jc      L032054?
08AA           2424   ;        C:\Users\carso\Documents\1. School\0. Spring 2018\Elec 292\project1\elec291-292-AACHJY\Project2Files\C\Driving Code\EFM8_I2C_Nunchuck_and_motor.c:684: direction=SW;
08AA 7C6E      2425            mov     r4,#0x6E
08AC 8001      2426            sjmp    L032085?
08AE           2427   L032054?:
08AE           2428   ;        C:\Users\carso\Documents\1. School\0. Spring 2018\Elec 292\project1\elec291-292-AACHJY\Project2Files\C\Driving Code\EFM8_I2C_Nunchuck_and_motor.c:686: else if(x_axis<-50&&x_axis>=-70){
08AE C3        2429            clr     c
08AF EA        2430            mov     a,r2
08B0 94CE      2431            subb    a,#0xCE
08B2 EB        2432            mov     a,r3
08B3 6480      2433            xrl     a,#0x80
08B5 947F      2434            subb    a,#0x7f
08B7 5001      2435            jnc     L032050?
08B9 C3        2436            clr     c
08BA EA        2437            mov     a,r2
08BB 94BA      2438            subb    a,#0xBA
08BD EB        2439            mov     a,r3
08BE 6480      2440            xrl     a,#0x80
08C0 947F      2441            subb    a,#0x7f
08C2 4001      2442            jc      L032050?
08C4           2443   ;        C:\Users\carso\Documents\1. School\0. Spring 2018\Elec 292\project1\elec291-292-AACHJY\Project2Files\C\Driving Code\EFM8_I2C_Nunchuck_and_motor.c:687: direction=SWW;
08C4 7C70      2444            mov     r4,#0x70
08C6 8001      2445            sjmp    L032085?
08C8           2446   L032050?:
08C8           2447   ;        C:\Users\carso\Documents\1. School\0. Spring 2018\Elec 292\project1\elec291-292-AACHJY\Project2Files\C\Driving Code\EFM8_I2C_Nunchuck_and_motor.c:689: else if(x_axis<-70&&x_axis>=-110){
08C8 C3        2448            clr     c
08C9 EA        2449            mov     a,r2
08CA 94BA      2450            subb    a,#0xBA
08CC EB        2451            mov     a,r3
08CD 6480      2452            xrl     a,#0x80
08CF 947F      2453            subb    a,#0x7f
08D1 5001      2454            jnc     L032046?
08D3 C3        2455            clr     c
08D4 EA        2456            mov     a,r2
08D5 9492      2457            subb    a,#0x92
08D7 EB        2458            mov     a,r3
08D8 6480      2459            xrl     a,#0x80
08DA 947F      2460            subb    a,#0x7f
08DC 4001      2461            jc      L032046?
08DE           2462   ;        C:\Users\carso\Documents\1. School\0. Spring 2018\Elec 292\project1\elec291-292-AACHJY\Project2Files\C\Driving Code\EFM8_I2C_Nunchuck_and_motor.c:690: direction=west;
08DE 7C6A      2463            mov     r4,#0x6A
08E0 8001      2464            sjmp    L032085?
08E2           2465   L032046?:
08E2           2466   ;        C:\Users\carso\Documents\1. School\0. Spring 2018\Elec 292\project1\elec291-292-AACHJY\Project2Files\C\Driving Code\EFM8_I2C_Nunchuck_and_motor.c:693: direction=north;
08E2 7C61      2467            mov     r4,#0x61
08E4           2468   L032085?:
08E4           2469   ;        C:\Users\carso\Documents\1. School\0. Spring 2018\Elec 292\project1\elec291-292-AACHJY\Project2Files\C\Driving Code\EFM8_I2C_Nunchuck_and_motor.c:699: return direction;
08E4 8C82      2470            mov     dpl,r4
08E6 22        2471            ret
08E7           2472   ;------------------------------------------------------------
08E7           2473   ;Allocation info for local variables in function 'main'
08E7           2474   ;------------------------------------------------------------
08E7           2475   ;rbuf                      Allocated with name '_main_rbuf_1_135'
08E7           2476   ;joy_x                     Allocated to registers r6 r7 
08E7           2477   ;joy_y                     Allocated with name '_main_joy_y_1_135'
08E7           2478   ;off_x                     Allocated with name '_main_off_x_1_135'
08E7           2479   ;off_y                     Allocated with name '_main_off_y_1_135'
08E7           2480   ;acc_x                     Allocated with name '_main_acc_x_1_135'
08E7           2481   ;acc_y                     Allocated with name '_main_acc_y_1_135'
08E7           2482   ;acc_z                     Allocated with name '_main_acc_z_1_135'
08E7           2483   ;speed                     Allocated to registers r2 r3 
08E7           2484   ;direction                 Allocated to registers r4 
08E7           2485   ;sloc0                     Allocated with name '_main_sloc0_1_0'
08E7           2486   ;------------------------------------------------------------
08E7           2487   ;        C:\Users\carso\Documents\1. School\0. Spring 2018\Elec 292\project1\elec291-292-AACHJY\Project2Files\C\Driving Code\EFM8_I2C_Nunchuck_and_motor.c:704: void main (void)
08E7           2488   ;        -----------------------------------------
08E7           2489   ;         function main
08E7           2490   ;        -----------------------------------------
08E7           2491   _main:
08E7           2492   ;        C:\Users\carso\Documents\1. School\0. Spring 2018\Elec 292\project1\elec291-292-AACHJY\Project2Files\C\Driving Code\EFM8_I2C_Nunchuck_and_motor.c:716: printf("\x1b[2J\x1b[1;1H"); // Clear screen using ANSI escape sequence.
08E7 74B0      2493            mov     a,#__str_1
08E9 C0E0      2494            push    acc
08EB 74D8      2495            mov     a,#(__str_1 >> 8)
08ED C0E0      2496            push    acc
08EF 7480      2497            mov     a,#0x80
08F1 C0E0      2498            push    acc
08F3 120100    2499            lcall   _printf
08F6 1581      2500            dec     sp
08F8 1581      2501            dec     sp
08FA 1581      2502            dec     sp
08FC           2503   ;        C:\Users\carso\Documents\1. School\0. Spring 2018\Elec 292\project1\elec291-292-AACHJY\Project2Files\C\Driving Code\EFM8_I2C_Nunchuck_and_motor.c:717: printf("\n\nEFM8LB1 WII Nunchuck I2C Reader\n");
08FC 74F0      2504            mov     a,#__str_2
08FE C0E0      2505            push    acc
0900 74D8      2506            mov     a,#(__str_2 >> 8)
0902 C0E0      2507            push    acc
0904 7480      2508            mov     a,#0x80
0906 C0E0      2509            push    acc
0908 120100    2510            lcall   _printf
090B 1581      2511            dec     sp
090D 1581      2512            dec     sp
090F 1581      2513            dec     sp
0911           2514   ;        C:\Users\carso\Documents\1. School\0. Spring 2018\Elec 292\project1\elec291-292-AACHJY\Project2Files\C\Driving Code\EFM8_I2C_Nunchuck_and_motor.c:719: Timer4ms(200);
0911 7582C8    2515            mov     dpl,#0xC8
0914 120100    2516            lcall   _Timer4ms
0917           2517   ;        C:\Users\carso\Documents\1. School\0. Spring 2018\Elec 292\project1\elec291-292-AACHJY\Project2Files\C\Driving Code\EFM8_I2C_Nunchuck_and_motor.c:720: nunchuck_init(1);
0917 D270      2518            setb    _nunchuck_init_PARM_1
0919 120100    2519            lcall   _nunchuck_init
091C           2520   ;        C:\Users\carso\Documents\1. School\0. Spring 2018\Elec 292\project1\elec291-292-AACHJY\Project2Files\C\Driving Code\EFM8_I2C_Nunchuck_and_motor.c:721: Timer4ms(100);
091C 758264    2521            mov     dpl,#0x64
091F 120100    2522            lcall   _Timer4ms
0922           2523   ;        C:\Users\carso\Documents\1. School\0. Spring 2018\Elec 292\project1\elec291-292-AACHJY\Project2Files\C\Driving Code\EFM8_I2C_Nunchuck_and_motor.c:723: nunchuck_getdata(rbuf);
0922 90BDE0    2524            mov     dptr,#_main_rbuf_1_135
0925 75F040    2525            mov     b,#0x40
0928 120100    2526            lcall   _nunchuck_getdata
092B           2527   ;        C:\Users\carso\Documents\1. School\0. Spring 2018\Elec 292\project1\elec291-292-AACHJY\Project2Files\C\Driving Code\EFM8_I2C_Nunchuck_and_motor.c:725: off_x=(int)rbuf[0]-128;
092B AAE0      2528            mov     r2,_main_rbuf_1_135
092D 7B00      2529            mov     r3,#0x00
092F EA        2530            mov     a,r2
0930 2480      2531            add     a,#0x80
0932 F580      2532            mov     _main_off_x_1_135,a
0934 EB        2533            mov     a,r3
0935 34FF      2534            addc    a,#0xff
0937 F581      2535            mov     (_main_off_x_1_135 + 1),a
0939           2536   ;        C:\Users\carso\Documents\1. School\0. Spring 2018\Elec 292\project1\elec291-292-AACHJY\Project2Files\C\Driving Code\EFM8_I2C_Nunchuck_and_motor.c:726: off_y=(int)rbuf[1]-128;
0939 ACE1      2537            mov     r4,(_main_rbuf_1_135 + 0x0001)
093B 7D00      2538            mov     r5,#0x00
093D EC        2539            mov     a,r4
093E 2480      2540            add     a,#0x80
0940 F5D0      2541            mov     _main_off_y_1_135,a
0942 ED        2542            mov     a,r5
0943 34FF      2543            addc    a,#0xff
0945 F5D1      2544            mov     (_main_off_y_1_135 + 1),a
0947           2545   ;        C:\Users\carso\Documents\1. School\0. Spring 2018\Elec 292\project1\elec291-292-AACHJY\Project2Files\C\Driving Code\EFM8_I2C_Nunchuck_and_motor.c:727: printf("Offset_X:%4d Offset_Y:%4d\n\n", off_x, off_y);
0947 C0D0      2546            push    _main_off_y_1_135
0949 C0D1      2547            push    (_main_off_y_1_135 + 1)
094B C080      2548            push    _main_off_x_1_135
094D C081      2549            push    (_main_off_x_1_135 + 1)
094F 7430      2550            mov     a,#__str_3
0951 C0E0      2551            push    acc
0953 74D9      2552            mov     a,#(__str_3 >> 8)
0955 C0E0      2553            push    acc
0957 7480      2554            mov     a,#0x80
0959 C0E0      2555            push    acc
095B 120100    2556            lcall   _printf
095E E581      2557            mov     a,sp
0960 24F9      2558            add     a,#0xf9
0962 F581      2559            mov     sp,a
0964           2560   ;        C:\Users\carso\Documents\1. School\0. Spring 2018\Elec 292\project1\elec291-292-AACHJY\Project2Files\C\Driving Code\EFM8_I2C_Nunchuck_and_motor.c:729: while(1)
0964           2561   L033032?:
0964           2562   ;        C:\Users\carso\Documents\1. School\0. Spring 2018\Elec 292\project1\elec291-292-AACHJY\Project2Files\C\Driving Code\EFM8_I2C_Nunchuck_and_motor.c:731: nunchuck_getdata(rbuf);
0964 90BDE0    2563            mov     dptr,#_main_rbuf_1_135
0967 75F040    2564            mov     b,#0x40
096A 120100    2565            lcall   _nunchuck_getdata
096D           2566   ;        C:\Users\carso\Documents\1. School\0. Spring 2018\Elec 292\project1\elec291-292-AACHJY\Project2Files\C\Driving Code\EFM8_I2C_Nunchuck_and_motor.c:733: joy_x=(int)rbuf[0]-128-off_x;
096D AEE0      2567            mov     r6,_main_rbuf_1_135
096F 7F00      2568            mov     r7,#0x00
0971 EE        2569            mov     a,r6
0972 2480      2570            add     a,#0x80
0974 FE        2571            mov     r6,a
0975 EF        2572            mov     a,r7
0976 34FF      2573            addc    a,#0xff
0978 FF        2574            mov     r7,a
0979 EE        2575            mov     a,r6
097A C3        2576            clr     c
097B 9580      2577            subb    a,_main_off_x_1_135
097D FE        2578            mov     r6,a
097E EF        2579            mov     a,r7
097F 9581      2580            subb    a,(_main_off_x_1_135 + 1)
0981 FF        2581            mov     r7,a
0982           2582   ;        C:\Users\carso\Documents\1. School\0. Spring 2018\Elec 292\project1\elec291-292-AACHJY\Project2Files\C\Driving Code\EFM8_I2C_Nunchuck_and_motor.c:734: joy_y=(int)rbuf[1]-128-off_y;
0982 ACE1      2583            mov     r4,(_main_rbuf_1_135 + 0x0001)
0984 7D00      2584            mov     r5,#0x00
0986 EC        2585            mov     a,r4
0987 2480      2586            add     a,#0x80
0989 FC        2587            mov     r4,a
098A ED        2588            mov     a,r5
098B 34FF      2589            addc    a,#0xff
098D FD        2590            mov     r5,a
098E EC        2591            mov     a,r4
098F C3        2592            clr     c
0990 95D0      2593            subb    a,_main_off_y_1_135
0992 F530      2594            mov     _main_joy_y_1_135,a
0994 ED        2595            mov     a,r5
0995 95D1      2596            subb    a,(_main_off_y_1_135 + 1)
0997 F531      2597            mov     (_main_joy_y_1_135 + 1),a
0999           2598   ;        C:\Users\carso\Documents\1. School\0. Spring 2018\Elec 292\project1\elec291-292-AACHJY\Project2Files\C\Driving Code\EFM8_I2C_Nunchuck_and_motor.c:735: acc_x=rbuf[2]*4; 
0999 E5E2      2599            mov     a,(_main_rbuf_1_135 + 0x0002)
099B 75F004    2600            mov     b,#0x04
099E A4        2601            mul     ab
099F F520      2602            mov     _main_acc_x_1_135,a
09A1 85F021    2603            mov     (_main_acc_x_1_135 + 1),b
09A4           2604   ;        C:\Users\carso\Documents\1. School\0. Spring 2018\Elec 292\project1\elec291-292-AACHJY\Project2Files\C\Driving Code\EFM8_I2C_Nunchuck_and_motor.c:736: acc_y=rbuf[3]*4;
09A4 E5E3      2605            mov     a,(_main_rbuf_1_135 + 0x0003)
09A6 75F004    2606            mov     b,#0x04
09A9 A4        2607            mul     ab
09AA F570      2608            mov     _main_acc_y_1_135,a
09AC 85F071    2609            mov     (_main_acc_y_1_135 + 1),b
09AF           2610   ;        C:\Users\carso\Documents\1. School\0. Spring 2018\Elec 292\project1\elec291-292-AACHJY\Project2Files\C\Driving Code\EFM8_I2C_Nunchuck_and_motor.c:737: acc_z=rbuf[4]*4;
09AF E5E4      2611            mov     a,(_main_rbuf_1_135 + 0x0004)
09B1 75F004    2612            mov     b,#0x04
09B4 A4        2613            mul     ab
09B5 F5C0      2614            mov     _main_acc_z_1_135,a
09B7 85F0C1    2615            mov     (_main_acc_z_1_135 + 1),b
09BA           2616   ;        C:\Users\carso\Documents\1. School\0. Spring 2018\Elec 292\project1\elec291-292-AACHJY\Project2Files\C\Driving Code\EFM8_I2C_Nunchuck_and_motor.c:739: but1=(rbuf[5] & 0x01)?1:0;
09BA E5E5      2617            mov     a,(_main_rbuf_1_135 + 0x0005)
09BC 13        2618            rrc     a
09BD 92A0      2619            mov     _main_but1_1_135,c
09BF           2620   ;        C:\Users\carso\Documents\1. School\0. Spring 2018\Elec 292\project1\elec291-292-AACHJY\Project2Files\C\Driving Code\EFM8_I2C_Nunchuck_and_motor.c:740: but2=(rbuf[5] & 0x02)?1:0;
09BF E5E5      2621            mov     a,(_main_rbuf_1_135 + 0x0005)
09C1 A2E1      2622            mov     c,acc.1
09C3 92F0      2623            mov     _main_but2_1_135,c
09C5           2624   ;        C:\Users\carso\Documents\1. School\0. Spring 2018\Elec 292\project1\elec291-292-AACHJY\Project2Files\C\Driving Code\EFM8_I2C_Nunchuck_and_motor.c:741: if (rbuf[5] & 0x04) acc_x+=2;
09C5 E5E5      2625            mov     a,(_main_rbuf_1_135 + 0x0005)
09C7 30E2B0    2626            jnb     acc.2,L033002?
09CA 7402      2627            mov     a,#0x02
09CC 2520      2628            add     a,_main_acc_x_1_135
09CE F520      2629            mov     _main_acc_x_1_135,a
09D0 E4        2630            clr     a
09D1 3521      2631            addc    a,(_main_acc_x_1_135 + 1)
09D3 F521      2632            mov     (_main_acc_x_1_135 + 1),a
09D5           2633   L033002?:
09D5           2634   ;        C:\Users\carso\Documents\1. School\0. Spring 2018\Elec 292\project1\elec291-292-AACHJY\Project2Files\C\Driving Code\EFM8_I2C_Nunchuck_and_motor.c:742: if (rbuf[5] & 0x08) acc_x+=1;
09D5 E5E5      2635            mov     a,(_main_rbuf_1_135 + 0x0005)
09D7 30E3F0    2636            jnb     acc.3,L033004?
09DA 0520      2637            inc     _main_acc_x_1_135
09DC E4        2638            clr     a
09DD B52030    2639            cjne    a,_main_acc_x_1_135,L033053?
09E0 0521      2640            inc     (_main_acc_x_1_135 + 1)
09E2           2641   L033053?:
09E2           2642   L033004?:
09E2           2643   ;        C:\Users\carso\Documents\1. School\0. Spring 2018\Elec 292\project1\elec291-292-AACHJY\Project2Files\C\Driving Code\EFM8_I2C_Nunchuck_and_motor.c:743: if (rbuf[5] & 0x10) acc_y+=2;
09E2 E5E5      2644            mov     a,(_main_rbuf_1_135 + 0x0005)
09E4 30E470    2645            jnb     acc.4,L033006?
09E7 7402      2646            mov     a,#0x02
09E9 2570      2647            add     a,_main_acc_y_1_135
09EB F570      2648            mov     _main_acc_y_1_135,a
09ED E4        2649            clr     a
09EE 3571      2650            addc    a,(_main_acc_y_1_135 + 1)
09F0 F571      2651            mov     (_main_acc_y_1_135 + 1),a
09F2           2652   L033006?:
09F2           2653   ;        C:\Users\carso\Documents\1. School\0. Spring 2018\Elec 292\project1\elec291-292-AACHJY\Project2Files\C\Driving Code\EFM8_I2C_Nunchuck_and_motor.c:744: if (rbuf[5] & 0x20) acc_y+=1;
09F2 E5E5      2654            mov     a,(_main_rbuf_1_135 + 0x0005)
09F4 30E5B0    2655            jnb     acc.5,L033008?
09F7 0570      2656            inc     _main_acc_y_1_135
09F9 E4        2657            clr     a
09FA B570F0    2658            cjne    a,_main_acc_y_1_135,L033056?
09FD 0571      2659            inc     (_main_acc_y_1_135 + 1)
09FF           2660   L033056?:
09FF           2661   L033008?:
09FF           2662   ;        C:\Users\carso\Documents\1. School\0. Spring 2018\Elec 292\project1\elec291-292-AACHJY\Project2Files\C\Driving Code\EFM8_I2C_Nunchuck_and_motor.c:745: if (rbuf[5] & 0x40) acc_z+=2;
09FF E5E5      2663            mov     a,(_main_rbuf_1_135 + 0x0005)
0A01 30E630    2664            jnb     acc.6,L033010?
0A04 7402      2665            mov     a,#0x02
0A06 25C0      2666            add     a,_main_acc_z_1_135
0A08 F5C0      2667            mov     _main_acc_z_1_135,a
0A0A E4        2668            clr     a
0A0B 35C1      2669            addc    a,(_main_acc_z_1_135 + 1)
0A0D F5C1      2670            mov     (_main_acc_z_1_135 + 1),a
0A0F           2671   L033010?:
0A0F           2672   ;        C:\Users\carso\Documents\1. School\0. Spring 2018\Elec 292\project1\elec291-292-AACHJY\Project2Files\C\Driving Code\EFM8_I2C_Nunchuck_and_motor.c:746: if (rbuf[5] & 0x80) acc_z+=1;
0A0F E5E5      2673            mov     a,(_main_rbuf_1_135 + 0x0005)
0A11 30E770    2674            jnb     acc.7,L033012?
0A14 05C0      2675            inc     _main_acc_z_1_135
0A16 E4        2676            clr     a
0A17 B5C0B0    2677            cjne    a,_main_acc_z_1_135,L033059?
0A1A 05C1      2678            inc     (_main_acc_z_1_135 + 1)
0A1C           2679   L033059?:
0A1C           2680   L033012?:
0A1C           2681   ;        C:\Users\carso\Documents\1. School\0. Spring 2018\Elec 292\project1\elec291-292-AACHJY\Project2Files\C\Driving Code\EFM8_I2C_Nunchuck_and_motor.c:749: but1?'1':'0', but2?'1':'0', joy_x, joy_y, acc_x, acc_y, acc_z);
0A1C 30F0F0    2682            jnb     _main_but2_1_135,L033036?
0A1F 7A31      2683            mov     r2,#0x31
0A21 8001      2684            sjmp    L033037?
0A23           2685   L033036?:
0A23 7A30      2686            mov     r2,#0x30
0A25           2687   L033037?:
0A25 EA        2688            mov     a,r2
0A26 33        2689            rlc     a
0A27 95E0      2690            subb    a,acc
0A29 FB        2691            mov     r3,a
0A2A 30A070    2692            jnb     _main_but1_1_135,L033038?
0A2D 750031    2693            mov     _main_sloc0_1_0,#0x31
0A30 8001      2694            sjmp    L033039?
0A32           2695   L033038?:
0A32 750030    2696            mov     _main_sloc0_1_0,#0x30
0A35           2697   L033039?:
0A35 E500      2698            mov     a,_main_sloc0_1_0
0A37 FC        2699            mov     r4,a
0A38 33        2700            rlc     a
0A39 95E0      2701            subb    a,acc
0A3B FD        2702            mov     r5,a
0A3C           2703   ;        C:\Users\carso\Documents\1. School\0. Spring 2018\Elec 292\project1\elec291-292-AACHJY\Project2Files\C\Driving Code\EFM8_I2C_Nunchuck_and_motor.c:748: printf("Buttons(Z:%c, C:%c) Joystick(%4d, %4d) Accelerometer(%3d, %3d, %3d)\x1b[0J\r",
0A3C C006      2704            push    ar6
0A3E C007      2705            push    ar7
0A40 C0C0      2706            push    _main_acc_z_1_135
0A42 C0C1      2707            push    (_main_acc_z_1_135 + 1)
0A44 C070      2708            push    _main_acc_y_1_135
0A46 C071      2709            push    (_main_acc_y_1_135 + 1)
0A48 C020      2710            push    _main_acc_x_1_135
0A4A C021      2711            push    (_main_acc_x_1_135 + 1)
0A4C C030      2712            push    _main_joy_y_1_135
0A4E C031      2713            push    (_main_joy_y_1_135 + 1)
0A50 C006      2714            push    ar6
0A52 C007      2715            push    ar7
0A54 C002      2716            push    ar2
0A56 C003      2717            push    ar3
0A58 C004      2718            push    ar4
0A5A C005      2719            push    ar5
0A5C 74F0      2720            mov     a,#__str_4
0A5E C0E0      2721            push    acc
0A60 74DC      2722            mov     a,#(__str_4 >> 8)
0A62 C0E0      2723            push    acc
0A64 7480      2724            mov     a,#0x80
0A66 C0E0      2725            push    acc
0A68 120100    2726            lcall   _printf
0A6B E581      2727            mov     a,sp
0A6D 24EF      2728            add     a,#0xef
0A6F F581      2729            mov     sp,a
0A71           2730   ;        C:\Users\carso\Documents\1. School\0. Spring 2018\Elec 292\project1\elec291-292-AACHJY\Project2Files\C\Driving Code\EFM8_I2C_Nunchuck_and_motor.c:750: Timer4ms(100);
0A71 758264    2731            mov     dpl,#0x64
0A74 120100    2732            lcall   _Timer4ms
0A77 D007      2733            pop     ar7
0A79 D006      2734            pop     ar6
0A7B           2735   ;        C:\Users\carso\Documents\1. School\0. Spring 2018\Elec 292\project1\elec291-292-AACHJY\Project2Files\C\Driving Code\EFM8_I2C_Nunchuck_and_motor.c:757: speed = get_speed(joy_y, joy_x);
0A7B 8E10      2736            mov     _get_speed_PARM_2,r6
0A7D 8F11      2737            mov     (_get_speed_PARM_2 + 1),r7
0A7F 853082    2738            mov     dpl,_main_joy_y_1_135
0A82 853183    2739            mov     dph,(_main_joy_y_1_135 + 1)
0A85 C006      2740            push    ar6
0A87 C007      2741            push    ar7
0A89 120100    2742            lcall   _get_speed
0A8C AA82      2743            mov     r2,dpl
0A8E AB83      2744            mov     r3,dph
0A90 D007      2745            pop     ar7
0A92 D006      2746            pop     ar6
0A94           2747   ;        C:\Users\carso\Documents\1. School\0. Spring 2018\Elec 292\project1\elec291-292-AACHJY\Project2Files\C\Driving Code\EFM8_I2C_Nunchuck_and_motor.c:764: direction=get_direction(joy_x, joy_y);
0A94 8530C0    2748            mov     _get_direction_PARM_2,_main_joy_y_1_135
0A97 8531C1    2749            mov     (_get_direction_PARM_2 + 1),(_main_joy_y_1_135 + 1)
0A9A 8E82      2750            mov     dpl,r6
0A9C 8F83      2751            mov     dph,r7
0A9E C002      2752            push    ar2
0AA0 C003      2753            push    ar3
0AA2 120100    2754            lcall   _get_direction
0AA5           2755   ;        C:\Users\carso\Documents\1. School\0. Spring 2018\Elec 292\project1\elec291-292-AACHJY\Project2Files\C\Driving Code\EFM8_I2C_Nunchuck_and_motor.c:765: printf("direction: %c", direction);
0AA5 E582      2756            mov     a,dpl
0AA7 FC        2757            mov     r4,a
0AA8 FD        2758            mov     r5,a
0AA9 33        2759            rlc     a
0AAA 95E0      2760            subb    a,acc
0AAC FE        2761            mov     r6,a
0AAD C004      2762            push    ar4
0AAF C005      2763            push    ar5
0AB1 C006      2764            push    ar6
0AB3 7430      2765            mov     a,#__str_5
0AB5 C0E0      2766            push    acc
0AB7 74DD      2767            mov     a,#(__str_5 >> 8)
0AB9 C0E0      2768            push    acc
0ABB 7480      2769            mov     a,#0x80
0ABD C0E0      2770            push    acc
0ABF 120100    2771            lcall   _printf
0AC2 E581      2772            mov     a,sp
0AC4 24FB      2773            add     a,#0xfb
0AC6 F581      2774            mov     sp,a
0AC8 D004      2775            pop     ar4
0ACA D003      2776            pop     ar3
0ACC D002      2777            pop     ar2
0ACE           2778   ;        C:\Users\carso\Documents\1. School\0. Spring 2018\Elec 292\project1\elec291-292-AACHJY\Project2Files\C\Driving Code\EFM8_I2C_Nunchuck_and_motor.c:767: switch(direction){
0ACE C3        2779            clr     c
0ACF EC        2780            mov     a,r4
0AD0 6480      2781            xrl     a,#0x80
0AD2 94E1      2782            subb    a,#0xe1
0AD4 5001      2783            jnc     L033062?
0AD6 020100    2784            ljmp    L033029?
0AD9           2785   L033062?:
0AD9 C3        2786            clr     c
0ADA 74F0      2787            mov     a,#(0x70 ^ 0x80)
0ADC 8CF0      2788            mov     b,r4
0ADE 63F080    2789            xrl     b,#0x80
0AE1 95F0      2790            subb    a,b
0AE3 5001      2791            jnc     L033063?
0AE5 020100    2792            ljmp    L033029?
0AE8           2793   L033063?:
0AE8 EC        2794            mov     a,r4
0AE9 249F      2795            add     a,#0x9f
0AEB FC        2796            mov     r4,a
0AEC 25E0      2797            add     a,acc
0AEE 2C        2798            add     a,r4
0AEF 90DE30    2799            mov     dptr,#L033064?
0AF2 73        2800            jmp     @a+dptr
0AF3           2801   L033064?:
0AF3 020100    2802            ljmp    L033013?
0AF6 020100    2803            ljmp    L033014?
0AF9 020100    2804            ljmp    L033018?
0AFC 020100    2805            ljmp    L033019?
0AFF 020100    2806            ljmp    L033020?
0B02 020100    2807            ljmp    L033017?
0B05 020100    2808            ljmp    L033021?
0B08 020100    2809            ljmp    L033022?
0B0B 020100    2810            ljmp    L033016?
0B0E 020100    2811            ljmp    L033015?
0B11 020100    2812            ljmp    L033024?
0B14 020100    2813            ljmp    L033025?
0B17 020100    2814            ljmp    L033026?
0B1A 020100    2815            ljmp    L033023?
0B1D 020100    2816            ljmp    L033027?
0B20 020100    2817            ljmp    L033028?
0B23           2818   ;        C:\Users\carso\Documents\1. School\0. Spring 2018\Elec 292\project1\elec291-292-AACHJY\Project2Files\C\Driving Code\EFM8_I2C_Nunchuck_and_motor.c:769: case north :
0B23           2819   L033013?:
0B23           2820   ;        C:\Users\carso\Documents\1. School\0. Spring 2018\Elec 292\project1\elec291-292-AACHJY\Project2Files\C\Driving Code\EFM8_I2C_Nunchuck_and_motor.c:771: go_straight(speed);
0B23 8A82      2821            mov     dpl,r2
0B25 120100    2822            lcall   _go_straight
0B28           2823   ;        C:\Users\carso\Documents\1. School\0. Spring 2018\Elec 292\project1\elec291-292-AACHJY\Project2Files\C\Driving Code\EFM8_I2C_Nunchuck_and_motor.c:774: break;
0B28 020100    2824            ljmp    L033032?
0B2B           2825   ;        C:\Users\carso\Documents\1. School\0. Spring 2018\Elec 292\project1\elec291-292-AACHJY\Project2Files\C\Driving Code\EFM8_I2C_Nunchuck_and_motor.c:777: case south: 
0B2B           2826   L033014?:
0B2B           2827   ;        C:\Users\carso\Documents\1. School\0. Spring 2018\Elec 292\project1\elec291-292-AACHJY\Project2Files\C\Driving Code\EFM8_I2C_Nunchuck_and_motor.c:779: go_reverse(speed);
0B2B 8A82      2828            mov     dpl,r2
0B2D 120100    2829            lcall   _go_reverse
0B30           2830   ;        C:\Users\carso\Documents\1. School\0. Spring 2018\Elec 292\project1\elec291-292-AACHJY\Project2Files\C\Driving Code\EFM8_I2C_Nunchuck_and_motor.c:782: break;
0B30 020100    2831            ljmp    L033032?
0B33           2832   ;        C:\Users\carso\Documents\1. School\0. Spring 2018\Elec 292\project1\elec291-292-AACHJY\Project2Files\C\Driving Code\EFM8_I2C_Nunchuck_and_motor.c:785: case west: 
0B33           2833   L033015?:
0B33           2834   ;        C:\Users\carso\Documents\1. School\0. Spring 2018\Elec 292\project1\elec291-292-AACHJY\Project2Files\C\Driving Code\EFM8_I2C_Nunchuck_and_motor.c:787: turn_west(speed);
0B33 8A82      2835            mov     dpl,r2
0B35 120100    2836            lcall   _turn_west
0B38           2837   ;        C:\Users\carso\Documents\1. School\0. Spring 2018\Elec 292\project1\elec291-292-AACHJY\Project2Files\C\Driving Code\EFM8_I2C_Nunchuck_and_motor.c:788: break;
0B38 020100    2838            ljmp    L033032?
0B3B           2839   ;        C:\Users\carso\Documents\1. School\0. Spring 2018\Elec 292\project1\elec291-292-AACHJY\Project2Files\C\Driving Code\EFM8_I2C_Nunchuck_and_motor.c:791: case east: 
0B3B           2840   L033016?:
0B3B           2841   ;        C:\Users\carso\Documents\1. School\0. Spring 2018\Elec 292\project1\elec291-292-AACHJY\Project2Files\C\Driving Code\EFM8_I2C_Nunchuck_and_motor.c:793: turn_east(speed);
0B3B 8A82      2842            mov     dpl,r2
0B3D 120100    2843            lcall   _turn_east
0B40           2844   ;        C:\Users\carso\Documents\1. School\0. Spring 2018\Elec 292\project1\elec291-292-AACHJY\Project2Files\C\Driving Code\EFM8_I2C_Nunchuck_and_motor.c:794: break;
0B40 020100    2845            ljmp    L033032?
0B43           2846   ;        C:\Users\carso\Documents\1. School\0. Spring 2018\Elec 292\project1\elec291-292-AACHJY\Project2Files\C\Driving Code\EFM8_I2C_Nunchuck_and_motor.c:797: case NW: 
0B43           2847   L033017?:
0B43           2848   ;        C:\Users\carso\Documents\1. School\0. Spring 2018\Elec 292\project1\elec291-292-AACHJY\Project2Files\C\Driving Code\EFM8_I2C_Nunchuck_and_motor.c:799: turn_NW(speed);
0B43 8A82      2849            mov     dpl,r2
0B45 120100    2850            lcall   _turn_NW
0B48           2851   ;        C:\Users\carso\Documents\1. School\0. Spring 2018\Elec 292\project1\elec291-292-AACHJY\Project2Files\C\Driving Code\EFM8_I2C_Nunchuck_and_motor.c:800: break;
0B48 020100    2852            ljmp    L033032?
0B4B           2853   ;        C:\Users\carso\Documents\1. School\0. Spring 2018\Elec 292\project1\elec291-292-AACHJY\Project2Files\C\Driving Code\EFM8_I2C_Nunchuck_and_motor.c:804: case NNE: 
0B4B           2854   L033018?:
0B4B           2855   ;        C:\Users\carso\Documents\1. School\0. Spring 2018\Elec 292\project1\elec291-292-AACHJY\Project2Files\C\Driving Code\EFM8_I2C_Nunchuck_and_motor.c:806: turn_NNE(speed);
0B4B 8A82      2856            mov     dpl,r2
0B4D 120100    2857            lcall   _turn_NNE
0B50           2858   ;        C:\Users\carso\Documents\1. School\0. Spring 2018\Elec 292\project1\elec291-292-AACHJY\Project2Files\C\Driving Code\EFM8_I2C_Nunchuck_and_motor.c:807: break;
0B50 020100    2859            ljmp    L033032?
0B53           2860   ;        C:\Users\carso\Documents\1. School\0. Spring 2018\Elec 292\project1\elec291-292-AACHJY\Project2Files\C\Driving Code\EFM8_I2C_Nunchuck_and_motor.c:810: case NNW: 
0B53           2861   L033019?:
0B53           2862   ;        C:\Users\carso\Documents\1. School\0. Spring 2018\Elec 292\project1\elec291-292-AACHJY\Project2Files\C\Driving Code\EFM8_I2C_Nunchuck_and_motor.c:812: turn_NNW(speed);
0B53 8A82      2863            mov     dpl,r2
0B55 120100    2864            lcall   _turn_NNW
0B58           2865   ;        C:\Users\carso\Documents\1. School\0. Spring 2018\Elec 292\project1\elec291-292-AACHJY\Project2Files\C\Driving Code\EFM8_I2C_Nunchuck_and_motor.c:813: break;
0B58 020100    2866            ljmp    L033032?
0B5B           2867   ;        C:\Users\carso\Documents\1. School\0. Spring 2018\Elec 292\project1\elec291-292-AACHJY\Project2Files\C\Driving Code\EFM8_I2C_Nunchuck_and_motor.c:816: case NE: 
0B5B           2868   L033020?:
0B5B           2869   ;        C:\Users\carso\Documents\1. School\0. Spring 2018\Elec 292\project1\elec291-292-AACHJY\Project2Files\C\Driving Code\EFM8_I2C_Nunchuck_and_motor.c:818: turn_NE(speed);
0B5B 8A82      2870            mov     dpl,r2
0B5D 120100    2871            lcall   _turn_NE
0B60           2872   ;        C:\Users\carso\Documents\1. School\0. Spring 2018\Elec 292\project1\elec291-292-AACHJY\Project2Files\C\Driving Code\EFM8_I2C_Nunchuck_and_motor.c:819: break;
0B60 020100    2873            ljmp    L033032?
0B63           2874   ;        C:\Users\carso\Documents\1. School\0. Spring 2018\Elec 292\project1\elec291-292-AACHJY\Project2Files\C\Driving Code\EFM8_I2C_Nunchuck_and_motor.c:822: case NEE: 
0B63           2875   L033021?:
0B63           2876   ;        C:\Users\carso\Documents\1. School\0. Spring 2018\Elec 292\project1\elec291-292-AACHJY\Project2Files\C\Driving Code\EFM8_I2C_Nunchuck_and_motor.c:824: turn_NEE(speed);
0B63 8A82      2877            mov     dpl,r2
0B65 120100    2878            lcall   _turn_NEE
0B68           2879   ;        C:\Users\carso\Documents\1. School\0. Spring 2018\Elec 292\project1\elec291-292-AACHJY\Project2Files\C\Driving Code\EFM8_I2C_Nunchuck_and_motor.c:825: break;
0B68 020100    2880            ljmp    L033032?
0B6B           2881   ;        C:\Users\carso\Documents\1. School\0. Spring 2018\Elec 292\project1\elec291-292-AACHJY\Project2Files\C\Driving Code\EFM8_I2C_Nunchuck_and_motor.c:828: case NWW: 
0B6B           2882   L033022?:
0B6B           2883   ;        C:\Users\carso\Documents\1. School\0. Spring 2018\Elec 292\project1\elec291-292-AACHJY\Project2Files\C\Driving Code\EFM8_I2C_Nunchuck_and_motor.c:830: turn_NWW(speed);
0B6B 8A82      2884            mov     dpl,r2
0B6D 120100    2885            lcall   _turn_NWW
0B70           2886   ;        C:\Users\carso\Documents\1. School\0. Spring 2018\Elec 292\project1\elec291-292-AACHJY\Project2Files\C\Driving Code\EFM8_I2C_Nunchuck_and_motor.c:831: break;
0B70 020100    2887            ljmp    L033032?
0B73           2888   ;        C:\Users\carso\Documents\1. School\0. Spring 2018\Elec 292\project1\elec291-292-AACHJY\Project2Files\C\Driving Code\EFM8_I2C_Nunchuck_and_motor.c:835: case SW: 
0B73           2889   L033023?:
0B73           2890   ;        C:\Users\carso\Documents\1. School\0. Spring 2018\Elec 292\project1\elec291-292-AACHJY\Project2Files\C\Driving Code\EFM8_I2C_Nunchuck_and_motor.c:837: turn_SW(speed);
0B73 8A82      2891            mov     dpl,r2
0B75 120100    2892            lcall   _turn_SW
0B78           2893   ;        C:\Users\carso\Documents\1. School\0. Spring 2018\Elec 292\project1\elec291-292-AACHJY\Project2Files\C\Driving Code\EFM8_I2C_Nunchuck_and_motor.c:838: break;
0B78 020100    2894            ljmp    L033032?
0B7B           2895   ;        C:\Users\carso\Documents\1. School\0. Spring 2018\Elec 292\project1\elec291-292-AACHJY\Project2Files\C\Driving Code\EFM8_I2C_Nunchuck_and_motor.c:842: case SSE: 
0B7B           2896   L033024?:
0B7B           2897   ;        C:\Users\carso\Documents\1. School\0. Spring 2018\Elec 292\project1\elec291-292-AACHJY\Project2Files\C\Driving Code\EFM8_I2C_Nunchuck_and_motor.c:844: turn_SSE(speed);
0B7B 8A82      2898            mov     dpl,r2
0B7D 120100    2899            lcall   _turn_SSE
0B80           2900   ;        C:\Users\carso\Documents\1. School\0. Spring 2018\Elec 292\project1\elec291-292-AACHJY\Project2Files\C\Driving Code\EFM8_I2C_Nunchuck_and_motor.c:845: break;
0B80 020100    2901            ljmp    L033032?
0B83           2902   ;        C:\Users\carso\Documents\1. School\0. Spring 2018\Elec 292\project1\elec291-292-AACHJY\Project2Files\C\Driving Code\EFM8_I2C_Nunchuck_and_motor.c:848: case SSW: 
0B83           2903   L033025?:
0B83           2904   ;        C:\Users\carso\Documents\1. School\0. Spring 2018\Elec 292\project1\elec291-292-AACHJY\Project2Files\C\Driving Code\EFM8_I2C_Nunchuck_and_motor.c:850: turn_SSW(speed);
0B83 8A82      2905            mov     dpl,r2
0B85 120100    2906            lcall   _turn_SSW
0B88           2907   ;        C:\Users\carso\Documents\1. School\0. Spring 2018\Elec 292\project1\elec291-292-AACHJY\Project2Files\C\Driving Code\EFM8_I2C_Nunchuck_and_motor.c:851: break;
0B88 020100    2908            ljmp    L033032?
0B8B           2909   ;        C:\Users\carso\Documents\1. School\0. Spring 2018\Elec 292\project1\elec291-292-AACHJY\Project2Files\C\Driving Code\EFM8_I2C_Nunchuck_and_motor.c:854: case SE: 
0B8B           2910   L033026?:
0B8B           2911   ;        C:\Users\carso\Documents\1. School\0. Spring 2018\Elec 292\project1\elec291-292-AACHJY\Project2Files\C\Driving Code\EFM8_I2C_Nunchuck_and_motor.c:856: turn_SE(speed);
0B8B 8A82      2912            mov     dpl,r2
0B8D 120100    2913            lcall   _turn_SE
0B90           2914   ;        C:\Users\carso\Documents\1. School\0. Spring 2018\Elec 292\project1\elec291-292-AACHJY\Project2Files\C\Driving Code\EFM8_I2C_Nunchuck_and_motor.c:857: break;
0B90 020100    2915            ljmp    L033032?
0B93           2916   ;        C:\Users\carso\Documents\1. School\0. Spring 2018\Elec 292\project1\elec291-292-AACHJY\Project2Files\C\Driving Code\EFM8_I2C_Nunchuck_and_motor.c:860: case SEE: 
0B93           2917   L033027?:
0B93           2918   ;        C:\Users\carso\Documents\1. School\0. Spring 2018\Elec 292\project1\elec291-292-AACHJY\Project2Files\C\Driving Code\EFM8_I2C_Nunchuck_and_motor.c:862: turn_SEE(speed);
0B93 8A82      2919            mov     dpl,r2
0B95 120100    2920            lcall   _turn_SEE
0B98           2921   ;        C:\Users\carso\Documents\1. School\0. Spring 2018\Elec 292\project1\elec291-292-AACHJY\Project2Files\C\Driving Code\EFM8_I2C_Nunchuck_and_motor.c:863: break;
0B98 020100    2922            ljmp    L033032?
0B9B           2923   ;        C:\Users\carso\Documents\1. School\0. Spring 2018\Elec 292\project1\elec291-292-AACHJY\Project2Files\C\Driving Code\EFM8_I2C_Nunchuck_and_motor.c:866: case SWW: 
0B9B           2924   L033028?:
0B9B           2925   ;        C:\Users\carso\Documents\1. School\0. Spring 2018\Elec 292\project1\elec291-292-AACHJY\Project2Files\C\Driving Code\EFM8_I2C_Nunchuck_and_motor.c:868: turn_SWW(speed);
0B9B 8A82      2926            mov     dpl,r2
0B9D 120100    2927            lcall   _turn_SWW
0BA0           2928   ;        C:\Users\carso\Documents\1. School\0. Spring 2018\Elec 292\project1\elec291-292-AACHJY\Project2Files\C\Driving Code\EFM8_I2C_Nunchuck_and_motor.c:869: break;
0BA0 020100    2929            ljmp    L033032?
0BA3           2930   ;        C:\Users\carso\Documents\1. School\0. Spring 2018\Elec 292\project1\elec291-292-AACHJY\Project2Files\C\Driving Code\EFM8_I2C_Nunchuck_and_motor.c:873: default: 
0BA3           2931   L033029?:
0BA3           2932   ;        C:\Users\carso\Documents\1. School\0. Spring 2018\Elec 292\project1\elec291-292-AACHJY\Project2Files\C\Driving Code\EFM8_I2C_Nunchuck_and_motor.c:875: stop();
0BA3 120100    2933            lcall   _stop
0BA6           2934   ;        C:\Users\carso\Documents\1. School\0. Spring 2018\Elec 292\project1\elec291-292-AACHJY\Project2Files\C\Driving Code\EFM8_I2C_Nunchuck_and_motor.c:881: direction='0'; //reset direction so it stops if no direction selected. 
0BA6 020100    2935            ljmp    L033032?
0BA9           2936            rseg R_CSEG
0BA9           2937   
0000           2938            rseg R_XINIT
0000           2939   
0000           2940            rseg R_CONST
0000           2941   __str_0:
0000 45787465  2942            db 'Extension type: %02x  %02x  %02x  %02x  %02x  %02x'
     6E73696F
     6E207479
     70653A20
     25303278
     20202530
     32782020
     25303278
     20202530
     32782020
     25303278
     20202530
     3278
0032 0A        2943            db 0x0A
0033 00        2944            db 0x00
0034           2945   __str_1:
0034 1B        2946            db 0x1B
0035 5B324A    2947            db '[2J'
0038 1B        2948            db 0x1B
0039 5B313B31  2949            db '[1;1H'
     48
003E 00        2950            db 0x00
003F           2951   __str_2:
003F 0A        2952            db 0x0A
0040 0A        2953            db 0x0A
0041 45464D38  2954            db 'EFM8LB1 WII Nunchuck I2C Reader'
     4C423120
     57494920
     4E756E63
     6875636B
     20493243
     20526561
     646572
0060 0A        2955            db 0x0A
0061 00        2956            db 0x00
0062           2957   __str_3:
0062 4F666673  2958            db 'Offset_X:%4d Offset_Y:%4d'
     65745F58
     3A253464
     204F6666
     7365745F
     593A2534
     64
007B 0A        2959            db 0x0A
007C 0A        2960            db 0x0A
007D 00        2961            db 0x00
007E           2962   __str_4:
007E 42757474  2963            db 'Buttons(Z:%c, C:%c) Joystick(%4d, %4d) Accelerometer(%3d, %3'
     6F6E7328
     5A3A2563
     2C20433A
     25632920
     4A6F7973
     7469636B
     28253464
     2C202534
     64292041
     6363656C
     65726F6D
     65746572
     28253364
     2C202533
00BA 642C2025  2964            db 'd, %3d)'
     336429
00C1 1B        2965            db 0x1B
00C2 5B304A    2966            db '[0J'
00C5 0D        2967            db 0x0D
00C6 00        2968            db 0x00
00C7           2969   __str_5:
00C7 64697265  2970            db 'direction: %c'
     6374696F
     6E3A2025
     63
00D4 00        2971            db 0x00
00D5           2972   
002E           2973            CSEG
002E           2974   
002E           2975   end
